
STM32F103C6_Drivers.axf:     file format elf32-littlearm


Disassembly of section .isr_vector:

08000000 <g_pfnVectors>:
 8000000:	20002800 	andcs	r2, r0, r0, lsl #16
 8000004:	08000241 	stmdaeq	r0, {r0, r6, r9}
 8000008:	08000291 	stmdaeq	r0, {r0, r4, r7, r9}
 800000c:	08000291 	stmdaeq	r0, {r0, r4, r7, r9}
 8000010:	08000291 	stmdaeq	r0, {r0, r4, r7, r9}
 8000014:	08000291 	stmdaeq	r0, {r0, r4, r7, r9}
 8000018:	08000291 	stmdaeq	r0, {r0, r4, r7, r9}
	...
 800002c:	08000291 	stmdaeq	r0, {r0, r4, r7, r9}
 8000030:	08000291 	stmdaeq	r0, {r0, r4, r7, r9}
 8000034:	00000000 	andeq	r0, r0, r0
 8000038:	08000291 	stmdaeq	r0, {r0, r4, r7, r9}
 800003c:	08000291 	stmdaeq	r0, {r0, r4, r7, r9}
 8000040:	08000291 	stmdaeq	r0, {r0, r4, r7, r9}
 8000044:	08000291 	stmdaeq	r0, {r0, r4, r7, r9}
 8000048:	08000291 	stmdaeq	r0, {r0, r4, r7, r9}
 800004c:	08000291 	stmdaeq	r0, {r0, r4, r7, r9}
 8000050:	08000291 	stmdaeq	r0, {r0, r4, r7, r9}
 8000054:	08000291 	stmdaeq	r0, {r0, r4, r7, r9}
 8000058:	08000855 	stmdaeq	r0, {r0, r2, r4, r6, fp}
 800005c:	08000879 	stmdaeq	r0, {r0, r3, r4, r5, r6, fp}
 8000060:	0800089d 	stmdaeq	r0, {r0, r2, r3, r4, r7, fp}
 8000064:	080008c1 	stmdaeq	r0, {r0, r6, r7, fp}
 8000068:	080008e5 	stmdaeq	r0, {r0, r2, r5, r6, r7, fp}
 800006c:	08000291 	stmdaeq	r0, {r0, r4, r7, r9}
 8000070:	08000291 	stmdaeq	r0, {r0, r4, r7, r9}
 8000074:	08000291 	stmdaeq	r0, {r0, r4, r7, r9}
 8000078:	08000291 	stmdaeq	r0, {r0, r4, r7, r9}
 800007c:	08000291 	stmdaeq	r0, {r0, r4, r7, r9}
 8000080:	08000291 	stmdaeq	r0, {r0, r4, r7, r9}
 8000084:	08000291 	stmdaeq	r0, {r0, r4, r7, r9}
 8000088:	08000291 	stmdaeq	r0, {r0, r4, r7, r9}
 800008c:	08000291 	stmdaeq	r0, {r0, r4, r7, r9}
 8000090:	08000291 	stmdaeq	r0, {r0, r4, r7, r9}
 8000094:	08000291 	stmdaeq	r0, {r0, r4, r7, r9}
 8000098:	08000291 	stmdaeq	r0, {r0, r4, r7, r9}
 800009c:	08000909 	stmdaeq	r0, {r0, r3, r8, fp}
 80000a0:	08000291 	stmdaeq	r0, {r0, r4, r7, r9}
 80000a4:	08000291 	stmdaeq	r0, {r0, r4, r7, r9}
 80000a8:	08000291 	stmdaeq	r0, {r0, r4, r7, r9}
 80000ac:	08000291 	stmdaeq	r0, {r0, r4, r7, r9}
 80000b0:	08000291 	stmdaeq	r0, {r0, r4, r7, r9}
 80000b4:	08000291 	stmdaeq	r0, {r0, r4, r7, r9}
 80000b8:	08000291 	stmdaeq	r0, {r0, r4, r7, r9}
 80000bc:	08000a81 	stmdaeq	r0, {r0, r7, r9, fp}
 80000c0:	08000a75 	stmdaeq	r0, {r0, r2, r4, r5, r6, r9, fp}
 80000c4:	08000c59 	stmdaeq	r0, {r0, r3, r4, r6, sl, fp}
 80000c8:	08000c4d 	stmdaeq	r0, {r0, r2, r3, r6, sl, fp}
 80000cc:	08000c65 	stmdaeq	r0, {r0, r2, r5, r6, sl, fp}
 80000d0:	08000cc1 	stmdaeq	r0, {r0, r6, r7, sl, fp}
 80000d4:	08000d1d 	stmdaeq	r0, {r0, r2, r3, r4, r8, sl, fp}
 80000d8:	08000d31 	stmdaeq	r0, {r0, r4, r5, r8, sl, fp}
 80000dc:	08000d45 	stmdaeq	r0, {r0, r2, r6, r8, sl, fp}
 80000e0:	080009b1 	stmdaeq	r0, {r0, r4, r5, r7, r8, fp}
 80000e4:	08000291 	stmdaeq	r0, {r0, r4, r7, r9}
 80000e8:	00000000 	andeq	r0, r0, r0
 80000ec:	08000291 	stmdaeq	r0, {r0, r4, r7, r9}
 80000f0:	08000291 	stmdaeq	r0, {r0, r4, r7, r9}
 80000f4:	08000291 	stmdaeq	r0, {r0, r4, r7, r9}
 80000f8:	08000291 	stmdaeq	r0, {r0, r4, r7, r9}
 80000fc:	08000291 	stmdaeq	r0, {r0, r4, r7, r9}
 8000100:	08000291 	stmdaeq	r0, {r0, r4, r7, r9}
 8000104:	08000291 	stmdaeq	r0, {r0, r4, r7, r9}
 8000108:	08000291 	stmdaeq	r0, {r0, r4, r7, r9}
 800010c:	08000291 	stmdaeq	r0, {r0, r4, r7, r9}
 8000110:	08000291 	stmdaeq	r0, {r0, r4, r7, r9}
 8000114:	08000291 	stmdaeq	r0, {r0, r4, r7, r9}
 8000118:	08000291 	stmdaeq	r0, {r0, r4, r7, r9}
 800011c:	08000291 	stmdaeq	r0, {r0, r4, r7, r9}
 8000120:	08000291 	stmdaeq	r0, {r0, r4, r7, r9}
 8000124:	08000291 	stmdaeq	r0, {r0, r4, r7, r9}
 8000128:	08000291 	stmdaeq	r0, {r0, r4, r7, r9}
 800012c:	08000291 	stmdaeq	r0, {r0, r4, r7, r9}

Disassembly of section .text:

08000130 <__do_global_dtors_aux>:
 8000130:	b510      	push	{r4, lr}
 8000132:	4c05      	ldr	r4, [pc, #20]	; (8000148 <__do_global_dtors_aux+0x18>)
 8000134:	7823      	ldrb	r3, [r4, #0]
 8000136:	b933      	cbnz	r3, 8000146 <__do_global_dtors_aux+0x16>
 8000138:	4b04      	ldr	r3, [pc, #16]	; (800014c <__do_global_dtors_aux+0x1c>)
 800013a:	b113      	cbz	r3, 8000142 <__do_global_dtors_aux+0x12>
 800013c:	4804      	ldr	r0, [pc, #16]	; (8000150 <__do_global_dtors_aux+0x20>)
 800013e:	f3af 8000 	nop.w
 8000142:	2301      	movs	r3, #1
 8000144:	7023      	strb	r3, [r4, #0]
 8000146:	bd10      	pop	{r4, pc}
 8000148:	2000000c 	andcs	r0, r0, ip
 800014c:	00000000 	andeq	r0, r0, r0
 8000150:	08000da0 	stmdaeq	r0, {r5, r7, r8, sl, fp}

08000154 <frame_dummy>:
 8000154:	b508      	push	{r3, lr}
 8000156:	4b03      	ldr	r3, [pc, #12]	; (8000164 <frame_dummy+0x10>)
 8000158:	b11b      	cbz	r3, 8000162 <frame_dummy+0xe>
 800015a:	4903      	ldr	r1, [pc, #12]	; (8000168 <frame_dummy+0x14>)
 800015c:	4803      	ldr	r0, [pc, #12]	; (800016c <frame_dummy+0x18>)
 800015e:	f3af 8000 	nop.w
 8000162:	bd08      	pop	{r3, pc}
 8000164:	00000000 	andeq	r0, r0, r0
 8000168:	20000010 	andcs	r0, r0, r0, lsl r0
 800016c:	08000da0 	stmdaeq	r0, {r5, r7, r8, sl, fp}

08000170 <EXTI9_CallBack>:
 8000170:	b480      	push	{r7}
 8000172:	af00      	add	r7, sp, #0
 8000174:	4b05      	ldr	r3, [pc, #20]	; (800018c <EXTI9_CallBack+0x1c>)
 8000176:	2201      	movs	r2, #1
 8000178:	701a      	strb	r2, [r3, #0]
 800017a:	f3ef 8305 	mrs	r3, IPSR
 800017e:	4a04      	ldr	r2, [pc, #16]	; (8000190 <EXTI9_CallBack+0x20>)
 8000180:	7013      	strb	r3, [r2, #0]
 8000182:	bf00      	nop
 8000184:	46bd      	mov	sp, r7
 8000186:	bc80      	pop	{r7}
 8000188:	4770      	bx	lr
 800018a:	bf00      	nop
 800018c:	20000028 	andcs	r0, r0, r8, lsr #32
 8000190:	20000030 	andcs	r0, r0, r0, lsr r0

08000194 <main>:
 8000194:	b580      	push	{r7, lr}
 8000196:	b088      	sub	sp, #32
 8000198:	af00      	add	r7, sp, #0
 800019a:	4b21      	ldr	r3, [pc, #132]	; (8000220 <main+0x8c>)
 800019c:	699b      	ldr	r3, [r3, #24]
 800019e:	4a20      	ldr	r2, [pc, #128]	; (8000220 <main+0x8c>)
 80001a0:	f043 0304 	orr.w	r3, r3, #4
 80001a4:	6193      	str	r3, [r2, #24]
 80001a6:	4b1e      	ldr	r3, [pc, #120]	; (8000220 <main+0x8c>)
 80001a8:	699b      	ldr	r3, [r3, #24]
 80001aa:	4a1d      	ldr	r2, [pc, #116]	; (8000220 <main+0x8c>)
 80001ac:	f043 0308 	orr.w	r3, r3, #8
 80001b0:	6193      	str	r3, [r2, #24]
 80001b2:	4b1b      	ldr	r3, [pc, #108]	; (8000220 <main+0x8c>)
 80001b4:	699b      	ldr	r3, [r3, #24]
 80001b6:	4a1a      	ldr	r2, [pc, #104]	; (8000220 <main+0x8c>)
 80001b8:	f043 0301 	orr.w	r3, r3, #1
 80001bc:	6193      	str	r3, [r2, #24]
 80001be:	4a19      	ldr	r2, [pc, #100]	; (8000224 <main+0x90>)
 80001c0:	f107 030c 	add.w	r3, r7, #12
 80001c4:	ca07      	ldmia	r2, {r0, r1, r2}
 80001c6:	e883 0007 	stmia.w	r3, {r0, r1, r2}
 80001ca:	2301      	movs	r3, #1
 80001cc:	767b      	strb	r3, [r7, #25]
 80001ce:	2300      	movs	r3, #0
 80001d0:	763b      	strb	r3, [r7, #24]
 80001d2:	4b15      	ldr	r3, [pc, #84]	; (8000228 <main+0x94>)
 80001d4:	61fb      	str	r3, [r7, #28]
 80001d6:	f107 030c 	add.w	r3, r7, #12
 80001da:	4618      	mov	r0, r3
 80001dc:	f000 fb2e 	bl	800083c <MCAL_EXTI_GPIO_Init>
 80001e0:	bf00      	nop
 80001e2:	bf00      	nop
 80001e4:	bf00      	nop
 80001e6:	bf00      	nop
 80001e8:	bf00      	nop
 80001ea:	bf00      	nop
 80001ec:	f04f 03ff 	mov.w	r3, #255	; 0xff
 80001f0:	4a0e      	ldr	r2, [pc, #56]	; (800022c <main+0x98>)
 80001f2:	6013      	str	r3, [r2, #0]
 80001f4:	4b0d      	ldr	r3, [pc, #52]	; (800022c <main+0x98>)
 80001f6:	681b      	ldr	r3, [r3, #0]
 80001f8:	4618      	mov	r0, r3
 80001fa:	4b0c      	ldr	r3, [pc, #48]	; (800022c <main+0x98>)
 80001fc:	681b      	ldr	r3, [r3, #0]
 80001fe:	4a0c      	ldr	r2, [pc, #48]	; (8000230 <main+0x9c>)
 8000200:	6812      	ldr	r2, [r2, #0]
 8000202:	4413      	add	r3, r2
 8000204:	4a0b      	ldr	r2, [pc, #44]	; (8000234 <main+0xa0>)
 8000206:	6013      	str	r3, [r2, #0]
 8000208:	f3ef 8314 	mrs	r3, CONTROL
 800020c:	4a0a      	ldr	r2, [pc, #40]	; (8000238 <main+0xa4>)
 800020e:	7013      	strb	r3, [r2, #0]
 8000210:	4b0a      	ldr	r3, [pc, #40]	; (800023c <main+0xa8>)
 8000212:	781b      	ldrb	r3, [r3, #0]
 8000214:	2b01      	cmp	r3, #1
 8000216:	d1fb      	bne.n	8000210 <main+0x7c>
 8000218:	4b08      	ldr	r3, [pc, #32]	; (800023c <main+0xa8>)
 800021a:	2200      	movs	r2, #0
 800021c:	701a      	strb	r2, [r3, #0]
 800021e:	e7f7      	b.n	8000210 <main+0x7c>
 8000220:	40021000 	andmi	r1, r2, r0
 8000224:	08000db8 	stmdaeq	r0, {r3, r4, r5, r7, r8, sl, fp}
 8000228:	08000171 	stmdaeq	r0, {r0, r4, r5, r6, r8}
 800022c:	20000000 	andcs	r0, r0, r0
 8000230:	20000004 	andcs	r0, r0, r4
 8000234:	2000002c 	andcs	r0, r0, ip, lsr #32
 8000238:	20000008 	andcs	r0, r0, r8
 800023c:	20000028 	andcs	r0, r0, r8, lsr #32

08000240 <Reset_Handler>:
 8000240:	480d      	ldr	r0, [pc, #52]	; (8000278 <LoopForever+0x2>)
 8000242:	4685      	mov	sp, r0
 8000244:	f3af 8000 	nop.w
 8000248:	480c      	ldr	r0, [pc, #48]	; (800027c <LoopForever+0x6>)
 800024a:	490d      	ldr	r1, [pc, #52]	; (8000280 <LoopForever+0xa>)
 800024c:	4a0d      	ldr	r2, [pc, #52]	; (8000284 <LoopForever+0xe>)
 800024e:	2300      	movs	r3, #0
 8000250:	e002      	b.n	8000258 <LoopCopyDataInit>

08000252 <CopyDataInit>:
 8000252:	58d4      	ldr	r4, [r2, r3]
 8000254:	50c4      	str	r4, [r0, r3]
 8000256:	3304      	adds	r3, #4

08000258 <LoopCopyDataInit>:
 8000258:	18c4      	adds	r4, r0, r3
 800025a:	428c      	cmp	r4, r1
 800025c:	d3f9      	bcc.n	8000252 <CopyDataInit>
 800025e:	4a0a      	ldr	r2, [pc, #40]	; (8000288 <LoopForever+0x12>)
 8000260:	4c0a      	ldr	r4, [pc, #40]	; (800028c <LoopForever+0x16>)
 8000262:	2300      	movs	r3, #0
 8000264:	e001      	b.n	800026a <LoopFillZerobss>

08000266 <FillZerobss>:
 8000266:	6013      	str	r3, [r2, #0]
 8000268:	3204      	adds	r2, #4

0800026a <LoopFillZerobss>:
 800026a:	42a2      	cmp	r2, r4
 800026c:	d3fb      	bcc.n	8000266 <FillZerobss>
 800026e:	f000 fd73 	bl	8000d58 <__libc_init_array>
 8000272:	f7ff ff8f 	bl	8000194 <main>

08000276 <LoopForever>:
 8000276:	e7fe      	b.n	8000276 <LoopForever>
 8000278:	20002800 	andcs	r2, r0, r0, lsl #16
 800027c:	20000000 	andcs	r0, r0, r0
 8000280:	2000000c 	andcs	r0, r0, ip
 8000284:	08000dcc 	stmdaeq	r0, {r2, r3, r6, r7, r8, sl, fp}
 8000288:	2000000c 	andcs	r0, r0, ip
 800028c:	200000c4 	andcs	r0, r0, r4, asr #1

08000290 <ADC1_2_IRQHandler>:
 8000290:	e7fe      	b.n	8000290 <ADC1_2_IRQHandler>
	...

08000294 <Get_CRLH_Postion>:
 8000294:	b480      	push	{r7}
 8000296:	b083      	sub	sp, #12
 8000298:	af00      	add	r7, sp, #0
 800029a:	4603      	mov	r3, r0
 800029c:	80fb      	strh	r3, [r7, #6]
 800029e:	88fb      	ldrh	r3, [r7, #6]
 80002a0:	f5b3 4f00 	cmp.w	r3, #32768	; 0x8000
 80002a4:	f000 80a5 	beq.w	80003f2 <Get_CRLH_Postion+0x15e>
 80002a8:	f5b3 4f00 	cmp.w	r3, #32768	; 0x8000
 80002ac:	f300 80a3 	bgt.w	80003f6 <Get_CRLH_Postion+0x162>
 80002b0:	f5b3 4f80 	cmp.w	r3, #16384	; 0x4000
 80002b4:	f000 809b 	beq.w	80003ee <Get_CRLH_Postion+0x15a>
 80002b8:	f5b3 4f80 	cmp.w	r3, #16384	; 0x4000
 80002bc:	f300 809b 	bgt.w	80003f6 <Get_CRLH_Postion+0x162>
 80002c0:	f5b3 5f00 	cmp.w	r3, #8192	; 0x2000
 80002c4:	f000 8091 	beq.w	80003ea <Get_CRLH_Postion+0x156>
 80002c8:	f5b3 5f00 	cmp.w	r3, #8192	; 0x2000
 80002cc:	f300 8093 	bgt.w	80003f6 <Get_CRLH_Postion+0x162>
 80002d0:	f5b3 5f80 	cmp.w	r3, #4096	; 0x1000
 80002d4:	f000 8087 	beq.w	80003e6 <Get_CRLH_Postion+0x152>
 80002d8:	f5b3 5f80 	cmp.w	r3, #4096	; 0x1000
 80002dc:	f300 808b 	bgt.w	80003f6 <Get_CRLH_Postion+0x162>
 80002e0:	f5b3 6f00 	cmp.w	r3, #2048	; 0x800
 80002e4:	d07d      	beq.n	80003e2 <Get_CRLH_Postion+0x14e>
 80002e6:	f5b3 6f00 	cmp.w	r3, #2048	; 0x800
 80002ea:	f300 8084 	bgt.w	80003f6 <Get_CRLH_Postion+0x162>
 80002ee:	f5b3 6f80 	cmp.w	r3, #1024	; 0x400
 80002f2:	d074      	beq.n	80003de <Get_CRLH_Postion+0x14a>
 80002f4:	f5b3 6f80 	cmp.w	r3, #1024	; 0x400
 80002f8:	dc7d      	bgt.n	80003f6 <Get_CRLH_Postion+0x162>
 80002fa:	f5b3 7f00 	cmp.w	r3, #512	; 0x200
 80002fe:	d06c      	beq.n	80003da <Get_CRLH_Postion+0x146>
 8000300:	f5b3 7f00 	cmp.w	r3, #512	; 0x200
 8000304:	dc77      	bgt.n	80003f6 <Get_CRLH_Postion+0x162>
 8000306:	f5b3 7f80 	cmp.w	r3, #256	; 0x100
 800030a:	d064      	beq.n	80003d6 <Get_CRLH_Postion+0x142>
 800030c:	f5b3 7f80 	cmp.w	r3, #256	; 0x100
 8000310:	dc71      	bgt.n	80003f6 <Get_CRLH_Postion+0x162>
 8000312:	2b80      	cmp	r3, #128	; 0x80
 8000314:	d05d      	beq.n	80003d2 <Get_CRLH_Postion+0x13e>
 8000316:	2b80      	cmp	r3, #128	; 0x80
 8000318:	dc6d      	bgt.n	80003f6 <Get_CRLH_Postion+0x162>
 800031a:	2b20      	cmp	r3, #32
 800031c:	dc48      	bgt.n	80003b0 <Get_CRLH_Postion+0x11c>
 800031e:	2b00      	cmp	r3, #0
 8000320:	dd69      	ble.n	80003f6 <Get_CRLH_Postion+0x162>
 8000322:	3b01      	subs	r3, #1
 8000324:	2b1f      	cmp	r3, #31
 8000326:	d866      	bhi.n	80003f6 <Get_CRLH_Postion+0x162>
 8000328:	a201      	add	r2, pc, #4	; (adr r2, 8000330 <Get_CRLH_Postion+0x9c>)
 800032a:	f852 f023 	ldr.w	pc, [r2, r3, lsl #2]
 800032e:	bf00      	nop
 8000330:	080003b7 	stmdaeq	r0, {r0, r1, r2, r4, r5, r7, r8, r9}
 8000334:	080003bb 	stmdaeq	r0, {r0, r1, r3, r4, r5, r7, r8, r9}
 8000338:	080003f7 	stmdaeq	r0, {r0, r1, r2, r4, r5, r6, r7, r8, r9}
 800033c:	080003bf 	stmdaeq	r0, {r0, r1, r2, r3, r4, r5, r7, r8, r9}
 8000340:	080003f7 	stmdaeq	r0, {r0, r1, r2, r4, r5, r6, r7, r8, r9}
 8000344:	080003f7 	stmdaeq	r0, {r0, r1, r2, r4, r5, r6, r7, r8, r9}
 8000348:	080003f7 	stmdaeq	r0, {r0, r1, r2, r4, r5, r6, r7, r8, r9}
 800034c:	080003c3 	stmdaeq	r0, {r0, r1, r6, r7, r8, r9}
 8000350:	080003f7 	stmdaeq	r0, {r0, r1, r2, r4, r5, r6, r7, r8, r9}
 8000354:	080003f7 	stmdaeq	r0, {r0, r1, r2, r4, r5, r6, r7, r8, r9}
 8000358:	080003f7 	stmdaeq	r0, {r0, r1, r2, r4, r5, r6, r7, r8, r9}
 800035c:	080003f7 	stmdaeq	r0, {r0, r1, r2, r4, r5, r6, r7, r8, r9}
 8000360:	080003f7 	stmdaeq	r0, {r0, r1, r2, r4, r5, r6, r7, r8, r9}
 8000364:	080003f7 	stmdaeq	r0, {r0, r1, r2, r4, r5, r6, r7, r8, r9}
 8000368:	080003f7 	stmdaeq	r0, {r0, r1, r2, r4, r5, r6, r7, r8, r9}
 800036c:	080003c7 	stmdaeq	r0, {r0, r1, r2, r6, r7, r8, r9}
 8000370:	080003f7 	stmdaeq	r0, {r0, r1, r2, r4, r5, r6, r7, r8, r9}
 8000374:	080003f7 	stmdaeq	r0, {r0, r1, r2, r4, r5, r6, r7, r8, r9}
 8000378:	080003f7 	stmdaeq	r0, {r0, r1, r2, r4, r5, r6, r7, r8, r9}
 800037c:	080003f7 	stmdaeq	r0, {r0, r1, r2, r4, r5, r6, r7, r8, r9}
 8000380:	080003f7 	stmdaeq	r0, {r0, r1, r2, r4, r5, r6, r7, r8, r9}
 8000384:	080003f7 	stmdaeq	r0, {r0, r1, r2, r4, r5, r6, r7, r8, r9}
 8000388:	080003f7 	stmdaeq	r0, {r0, r1, r2, r4, r5, r6, r7, r8, r9}
 800038c:	080003f7 	stmdaeq	r0, {r0, r1, r2, r4, r5, r6, r7, r8, r9}
 8000390:	080003f7 	stmdaeq	r0, {r0, r1, r2, r4, r5, r6, r7, r8, r9}
 8000394:	080003f7 	stmdaeq	r0, {r0, r1, r2, r4, r5, r6, r7, r8, r9}
 8000398:	080003f7 	stmdaeq	r0, {r0, r1, r2, r4, r5, r6, r7, r8, r9}
 800039c:	080003f7 	stmdaeq	r0, {r0, r1, r2, r4, r5, r6, r7, r8, r9}
 80003a0:	080003f7 	stmdaeq	r0, {r0, r1, r2, r4, r5, r6, r7, r8, r9}
 80003a4:	080003f7 	stmdaeq	r0, {r0, r1, r2, r4, r5, r6, r7, r8, r9}
 80003a8:	080003f7 	stmdaeq	r0, {r0, r1, r2, r4, r5, r6, r7, r8, r9}
 80003ac:	080003cb 	stmdaeq	r0, {r0, r1, r3, r6, r7, r8, r9}
 80003b0:	2b40      	cmp	r3, #64	; 0x40
 80003b2:	d00c      	beq.n	80003ce <Get_CRLH_Postion+0x13a>
 80003b4:	e01f      	b.n	80003f6 <Get_CRLH_Postion+0x162>
 80003b6:	2300      	movs	r3, #0
 80003b8:	e01e      	b.n	80003f8 <Get_CRLH_Postion+0x164>
 80003ba:	2304      	movs	r3, #4
 80003bc:	e01c      	b.n	80003f8 <Get_CRLH_Postion+0x164>
 80003be:	2308      	movs	r3, #8
 80003c0:	e01a      	b.n	80003f8 <Get_CRLH_Postion+0x164>
 80003c2:	230c      	movs	r3, #12
 80003c4:	e018      	b.n	80003f8 <Get_CRLH_Postion+0x164>
 80003c6:	2310      	movs	r3, #16
 80003c8:	e016      	b.n	80003f8 <Get_CRLH_Postion+0x164>
 80003ca:	2314      	movs	r3, #20
 80003cc:	e014      	b.n	80003f8 <Get_CRLH_Postion+0x164>
 80003ce:	2318      	movs	r3, #24
 80003d0:	e012      	b.n	80003f8 <Get_CRLH_Postion+0x164>
 80003d2:	231c      	movs	r3, #28
 80003d4:	e010      	b.n	80003f8 <Get_CRLH_Postion+0x164>
 80003d6:	2300      	movs	r3, #0
 80003d8:	e00e      	b.n	80003f8 <Get_CRLH_Postion+0x164>
 80003da:	2304      	movs	r3, #4
 80003dc:	e00c      	b.n	80003f8 <Get_CRLH_Postion+0x164>
 80003de:	2308      	movs	r3, #8
 80003e0:	e00a      	b.n	80003f8 <Get_CRLH_Postion+0x164>
 80003e2:	230c      	movs	r3, #12
 80003e4:	e008      	b.n	80003f8 <Get_CRLH_Postion+0x164>
 80003e6:	2310      	movs	r3, #16
 80003e8:	e006      	b.n	80003f8 <Get_CRLH_Postion+0x164>
 80003ea:	2314      	movs	r3, #20
 80003ec:	e004      	b.n	80003f8 <Get_CRLH_Postion+0x164>
 80003ee:	2318      	movs	r3, #24
 80003f0:	e002      	b.n	80003f8 <Get_CRLH_Postion+0x164>
 80003f2:	231c      	movs	r3, #28
 80003f4:	e000      	b.n	80003f8 <Get_CRLH_Postion+0x164>
 80003f6:	2300      	movs	r3, #0
 80003f8:	4618      	mov	r0, r3
 80003fa:	370c      	adds	r7, #12
 80003fc:	46bd      	mov	sp, r7
 80003fe:	bc80      	pop	{r7}
 8000400:	4770      	bx	lr
 8000402:	bf00      	nop

08000404 <MCAL_GPIO_Init>:
 8000404:	b590      	push	{r4, r7, lr}
 8000406:	b085      	sub	sp, #20
 8000408:	af00      	add	r7, sp, #0
 800040a:	6078      	str	r0, [r7, #4]
 800040c:	6039      	str	r1, [r7, #0]
 800040e:	2300      	movs	r3, #0
 8000410:	73fb      	strb	r3, [r7, #15]
 8000412:	2300      	movs	r3, #0
 8000414:	60bb      	str	r3, [r7, #8]
 8000416:	683b      	ldr	r3, [r7, #0]
 8000418:	881b      	ldrh	r3, [r3, #0]
 800041a:	2bff      	cmp	r3, #255	; 0xff
 800041c:	d801      	bhi.n	8000422 <MCAL_GPIO_Init+0x1e>
 800041e:	687b      	ldr	r3, [r7, #4]
 8000420:	e001      	b.n	8000426 <MCAL_GPIO_Init+0x22>
 8000422:	687b      	ldr	r3, [r7, #4]
 8000424:	3304      	adds	r3, #4
 8000426:	60bb      	str	r3, [r7, #8]
 8000428:	683b      	ldr	r3, [r7, #0]
 800042a:	881b      	ldrh	r3, [r3, #0]
 800042c:	4618      	mov	r0, r3
 800042e:	f7ff ff31 	bl	8000294 <Get_CRLH_Postion>
 8000432:	4603      	mov	r3, r0
 8000434:	461a      	mov	r2, r3
 8000436:	230f      	movs	r3, #15
 8000438:	4093      	lsls	r3, r2
 800043a:	43da      	mvns	r2, r3
 800043c:	68bb      	ldr	r3, [r7, #8]
 800043e:	681b      	ldr	r3, [r3, #0]
 8000440:	401a      	ands	r2, r3
 8000442:	68bb      	ldr	r3, [r7, #8]
 8000444:	601a      	str	r2, [r3, #0]
 8000446:	683b      	ldr	r3, [r7, #0]
 8000448:	789b      	ldrb	r3, [r3, #2]
 800044a:	2b04      	cmp	r3, #4
 800044c:	d00b      	beq.n	8000466 <MCAL_GPIO_Init+0x62>
 800044e:	683b      	ldr	r3, [r7, #0]
 8000450:	789b      	ldrb	r3, [r3, #2]
 8000452:	2b05      	cmp	r3, #5
 8000454:	d007      	beq.n	8000466 <MCAL_GPIO_Init+0x62>
 8000456:	683b      	ldr	r3, [r7, #0]
 8000458:	789b      	ldrb	r3, [r3, #2]
 800045a:	2b06      	cmp	r3, #6
 800045c:	d003      	beq.n	8000466 <MCAL_GPIO_Init+0x62>
 800045e:	683b      	ldr	r3, [r7, #0]
 8000460:	789b      	ldrb	r3, [r3, #2]
 8000462:	2b07      	cmp	r3, #7
 8000464:	d10e      	bne.n	8000484 <MCAL_GPIO_Init+0x80>
 8000466:	683b      	ldr	r3, [r7, #0]
 8000468:	789b      	ldrb	r3, [r3, #2]
 800046a:	3b04      	subs	r3, #4
 800046c:	009b      	lsls	r3, r3, #2
 800046e:	b25a      	sxtb	r2, r3
 8000470:	683b      	ldr	r3, [r7, #0]
 8000472:	78db      	ldrb	r3, [r3, #3]
 8000474:	b25b      	sxtb	r3, r3
 8000476:	4313      	orrs	r3, r2
 8000478:	b25b      	sxtb	r3, r3
 800047a:	b2db      	uxtb	r3, r3
 800047c:	f003 030f 	and.w	r3, r3, #15
 8000480:	73fb      	strb	r3, [r7, #15]
 8000482:	e034      	b.n	80004ee <MCAL_GPIO_Init+0xea>
 8000484:	683b      	ldr	r3, [r7, #0]
 8000486:	789b      	ldrb	r3, [r3, #2]
 8000488:	2b01      	cmp	r3, #1
 800048a:	d003      	beq.n	8000494 <MCAL_GPIO_Init+0x90>
 800048c:	683b      	ldr	r3, [r7, #0]
 800048e:	789b      	ldrb	r3, [r3, #2]
 8000490:	2b00      	cmp	r3, #0
 8000492:	d107      	bne.n	80004a4 <MCAL_GPIO_Init+0xa0>
 8000494:	683b      	ldr	r3, [r7, #0]
 8000496:	789b      	ldrb	r3, [r3, #2]
 8000498:	009b      	lsls	r3, r3, #2
 800049a:	b2db      	uxtb	r3, r3
 800049c:	f003 030f 	and.w	r3, r3, #15
 80004a0:	73fb      	strb	r3, [r7, #15]
 80004a2:	e024      	b.n	80004ee <MCAL_GPIO_Init+0xea>
 80004a4:	683b      	ldr	r3, [r7, #0]
 80004a6:	789b      	ldrb	r3, [r3, #2]
 80004a8:	2b08      	cmp	r3, #8
 80004aa:	d102      	bne.n	80004b2 <MCAL_GPIO_Init+0xae>
 80004ac:	2304      	movs	r3, #4
 80004ae:	73fb      	strb	r3, [r7, #15]
 80004b0:	e01d      	b.n	80004ee <MCAL_GPIO_Init+0xea>
 80004b2:	683b      	ldr	r3, [r7, #0]
 80004b4:	789b      	ldrb	r3, [r3, #2]
 80004b6:	009b      	lsls	r3, r3, #2
 80004b8:	b2db      	uxtb	r3, r3
 80004ba:	f003 030f 	and.w	r3, r3, #15
 80004be:	73fb      	strb	r3, [r7, #15]
 80004c0:	683b      	ldr	r3, [r7, #0]
 80004c2:	789b      	ldrb	r3, [r3, #2]
 80004c4:	2b02      	cmp	r3, #2
 80004c6:	d106      	bne.n	80004d6 <MCAL_GPIO_Init+0xd2>
 80004c8:	687b      	ldr	r3, [r7, #4]
 80004ca:	68db      	ldr	r3, [r3, #12]
 80004cc:	683a      	ldr	r2, [r7, #0]
 80004ce:	8812      	ldrh	r2, [r2, #0]
 80004d0:	431a      	orrs	r2, r3
 80004d2:	687b      	ldr	r3, [r7, #4]
 80004d4:	60da      	str	r2, [r3, #12]
 80004d6:	683b      	ldr	r3, [r7, #0]
 80004d8:	789b      	ldrb	r3, [r3, #2]
 80004da:	2b03      	cmp	r3, #3
 80004dc:	d107      	bne.n	80004ee <MCAL_GPIO_Init+0xea>
 80004de:	687b      	ldr	r3, [r7, #4]
 80004e0:	68db      	ldr	r3, [r3, #12]
 80004e2:	683a      	ldr	r2, [r7, #0]
 80004e4:	8812      	ldrh	r2, [r2, #0]
 80004e6:	43d2      	mvns	r2, r2
 80004e8:	401a      	ands	r2, r3
 80004ea:	687b      	ldr	r3, [r7, #4]
 80004ec:	60da      	str	r2, [r3, #12]
 80004ee:	7bfc      	ldrb	r4, [r7, #15]
 80004f0:	683b      	ldr	r3, [r7, #0]
 80004f2:	881b      	ldrh	r3, [r3, #0]
 80004f4:	4618      	mov	r0, r3
 80004f6:	f7ff fecd 	bl	8000294 <Get_CRLH_Postion>
 80004fa:	4603      	mov	r3, r0
 80004fc:	fa04 f203 	lsl.w	r2, r4, r3
 8000500:	68bb      	ldr	r3, [r7, #8]
 8000502:	681b      	ldr	r3, [r3, #0]
 8000504:	431a      	orrs	r2, r3
 8000506:	68bb      	ldr	r3, [r7, #8]
 8000508:	601a      	str	r2, [r3, #0]
 800050a:	bf00      	nop
 800050c:	3714      	adds	r7, #20
 800050e:	46bd      	mov	sp, r7
 8000510:	bd90      	pop	{r4, r7, pc}
	...

08000514 <EXTI_NVIC_ENABLE>:
 8000514:	b480      	push	{r7}
 8000516:	b083      	sub	sp, #12
 8000518:	af00      	add	r7, sp, #0
 800051a:	6078      	str	r0, [r7, #4]
 800051c:	687b      	ldr	r3, [r7, #4]
 800051e:	7a9b      	ldrb	r3, [r3, #10]
 8000520:	2b1f      	cmp	r3, #31
 8000522:	d83b      	bhi.n	800059c <EXTI_NVIC_ENABLE+0x88>
 8000524:	687b      	ldr	r3, [r7, #4]
 8000526:	7a9b      	ldrb	r3, [r3, #10]
 8000528:	3b06      	subs	r3, #6
 800052a:	2b04      	cmp	r3, #4
 800052c:	d82f      	bhi.n	800058e <EXTI_NVIC_ENABLE+0x7a>
 800052e:	a201      	add	r2, pc, #4	; (adr r2, 8000534 <EXTI_NVIC_ENABLE+0x20>)
 8000530:	f852 f023 	ldr.w	pc, [r2, r3, lsl #2]
 8000534:	08000549 	stmdaeq	r0, {r0, r3, r6, r8, sl}
 8000538:	08000557 	stmdaeq	r0, {r0, r1, r2, r4, r6, r8, sl}
 800053c:	08000565 	stmdaeq	r0, {r0, r2, r5, r6, r8, sl}
 8000540:	08000573 	stmdaeq	r0, {r0, r1, r4, r5, r6, r8, sl}
 8000544:	08000581 	stmdaeq	r0, {r0, r7, r8, sl}
 8000548:	4b1c      	ldr	r3, [pc, #112]	; (80005bc <EXTI_NVIC_ENABLE+0xa8>)
 800054a:	681b      	ldr	r3, [r3, #0]
 800054c:	4a1b      	ldr	r2, [pc, #108]	; (80005bc <EXTI_NVIC_ENABLE+0xa8>)
 800054e:	f043 0340 	orr.w	r3, r3, #64	; 0x40
 8000552:	6013      	str	r3, [r2, #0]
 8000554:	e02d      	b.n	80005b2 <EXTI_NVIC_ENABLE+0x9e>
 8000556:	4b19      	ldr	r3, [pc, #100]	; (80005bc <EXTI_NVIC_ENABLE+0xa8>)
 8000558:	681b      	ldr	r3, [r3, #0]
 800055a:	4a18      	ldr	r2, [pc, #96]	; (80005bc <EXTI_NVIC_ENABLE+0xa8>)
 800055c:	f043 0380 	orr.w	r3, r3, #128	; 0x80
 8000560:	6013      	str	r3, [r2, #0]
 8000562:	e026      	b.n	80005b2 <EXTI_NVIC_ENABLE+0x9e>
 8000564:	4b15      	ldr	r3, [pc, #84]	; (80005bc <EXTI_NVIC_ENABLE+0xa8>)
 8000566:	681b      	ldr	r3, [r3, #0]
 8000568:	4a14      	ldr	r2, [pc, #80]	; (80005bc <EXTI_NVIC_ENABLE+0xa8>)
 800056a:	f443 7380 	orr.w	r3, r3, #256	; 0x100
 800056e:	6013      	str	r3, [r2, #0]
 8000570:	e01f      	b.n	80005b2 <EXTI_NVIC_ENABLE+0x9e>
 8000572:	4b12      	ldr	r3, [pc, #72]	; (80005bc <EXTI_NVIC_ENABLE+0xa8>)
 8000574:	681b      	ldr	r3, [r3, #0]
 8000576:	4a11      	ldr	r2, [pc, #68]	; (80005bc <EXTI_NVIC_ENABLE+0xa8>)
 8000578:	f443 7300 	orr.w	r3, r3, #512	; 0x200
 800057c:	6013      	str	r3, [r2, #0]
 800057e:	e018      	b.n	80005b2 <EXTI_NVIC_ENABLE+0x9e>
 8000580:	4b0e      	ldr	r3, [pc, #56]	; (80005bc <EXTI_NVIC_ENABLE+0xa8>)
 8000582:	681b      	ldr	r3, [r3, #0]
 8000584:	4a0d      	ldr	r2, [pc, #52]	; (80005bc <EXTI_NVIC_ENABLE+0xa8>)
 8000586:	f443 6380 	orr.w	r3, r3, #1024	; 0x400
 800058a:	6013      	str	r3, [r2, #0]
 800058c:	e011      	b.n	80005b2 <EXTI_NVIC_ENABLE+0x9e>
 800058e:	4b0b      	ldr	r3, [pc, #44]	; (80005bc <EXTI_NVIC_ENABLE+0xa8>)
 8000590:	681b      	ldr	r3, [r3, #0]
 8000592:	4a0a      	ldr	r2, [pc, #40]	; (80005bc <EXTI_NVIC_ENABLE+0xa8>)
 8000594:	f443 0300 	orr.w	r3, r3, #8388608	; 0x800000
 8000598:	6013      	str	r3, [r2, #0]
 800059a:	e00a      	b.n	80005b2 <EXTI_NVIC_ENABLE+0x9e>
 800059c:	687b      	ldr	r3, [r7, #4]
 800059e:	7a9b      	ldrb	r3, [r3, #10]
 80005a0:	2b3f      	cmp	r3, #63	; 0x3f
 80005a2:	d806      	bhi.n	80005b2 <EXTI_NVIC_ENABLE+0x9e>
 80005a4:	4b06      	ldr	r3, [pc, #24]	; (80005c0 <EXTI_NVIC_ENABLE+0xac>)
 80005a6:	681b      	ldr	r3, [r3, #0]
 80005a8:	4a05      	ldr	r2, [pc, #20]	; (80005c0 <EXTI_NVIC_ENABLE+0xac>)
 80005aa:	f443 7380 	orr.w	r3, r3, #256	; 0x100
 80005ae:	6013      	str	r3, [r2, #0]
 80005b0:	e7ff      	b.n	80005b2 <EXTI_NVIC_ENABLE+0x9e>
 80005b2:	bf00      	nop
 80005b4:	370c      	adds	r7, #12
 80005b6:	46bd      	mov	sp, r7
 80005b8:	bc80      	pop	{r7}
 80005ba:	4770      	bx	lr
 80005bc:	e000e100 	and	lr, r0, r0, lsl #2
 80005c0:	e000e104 	and	lr, r0, r4, lsl #2

080005c4 <EXTI_NVIC_DISABLE>:
 80005c4:	b480      	push	{r7}
 80005c6:	b083      	sub	sp, #12
 80005c8:	af00      	add	r7, sp, #0
 80005ca:	6078      	str	r0, [r7, #4]
 80005cc:	687b      	ldr	r3, [r7, #4]
 80005ce:	7a9b      	ldrb	r3, [r3, #10]
 80005d0:	2b1f      	cmp	r3, #31
 80005d2:	d83b      	bhi.n	800064c <EXTI_NVIC_DISABLE+0x88>
 80005d4:	687b      	ldr	r3, [r7, #4]
 80005d6:	7a9b      	ldrb	r3, [r3, #10]
 80005d8:	3b06      	subs	r3, #6
 80005da:	2b04      	cmp	r3, #4
 80005dc:	d82f      	bhi.n	800063e <EXTI_NVIC_DISABLE+0x7a>
 80005de:	a201      	add	r2, pc, #4	; (adr r2, 80005e4 <EXTI_NVIC_DISABLE+0x20>)
 80005e0:	f852 f023 	ldr.w	pc, [r2, r3, lsl #2]
 80005e4:	080005f9 	stmdaeq	r0, {r0, r3, r4, r5, r6, r7, r8, sl}
 80005e8:	08000607 	stmdaeq	r0, {r0, r1, r2, r9, sl}
 80005ec:	08000615 	stmdaeq	r0, {r0, r2, r4, r9, sl}
 80005f0:	08000623 	stmdaeq	r0, {r0, r1, r5, r9, sl}
 80005f4:	08000631 	stmdaeq	r0, {r0, r4, r5, r9, sl}
 80005f8:	4b1c      	ldr	r3, [pc, #112]	; (800066c <EXTI_NVIC_DISABLE+0xa8>)
 80005fa:	681b      	ldr	r3, [r3, #0]
 80005fc:	4a1b      	ldr	r2, [pc, #108]	; (800066c <EXTI_NVIC_DISABLE+0xa8>)
 80005fe:	f043 0340 	orr.w	r3, r3, #64	; 0x40
 8000602:	6013      	str	r3, [r2, #0]
 8000604:	e02d      	b.n	8000662 <EXTI_NVIC_DISABLE+0x9e>
 8000606:	4b19      	ldr	r3, [pc, #100]	; (800066c <EXTI_NVIC_DISABLE+0xa8>)
 8000608:	681b      	ldr	r3, [r3, #0]
 800060a:	4a18      	ldr	r2, [pc, #96]	; (800066c <EXTI_NVIC_DISABLE+0xa8>)
 800060c:	f043 0380 	orr.w	r3, r3, #128	; 0x80
 8000610:	6013      	str	r3, [r2, #0]
 8000612:	e026      	b.n	8000662 <EXTI_NVIC_DISABLE+0x9e>
 8000614:	4b15      	ldr	r3, [pc, #84]	; (800066c <EXTI_NVIC_DISABLE+0xa8>)
 8000616:	681b      	ldr	r3, [r3, #0]
 8000618:	4a14      	ldr	r2, [pc, #80]	; (800066c <EXTI_NVIC_DISABLE+0xa8>)
 800061a:	f443 7380 	orr.w	r3, r3, #256	; 0x100
 800061e:	6013      	str	r3, [r2, #0]
 8000620:	e01f      	b.n	8000662 <EXTI_NVIC_DISABLE+0x9e>
 8000622:	4b12      	ldr	r3, [pc, #72]	; (800066c <EXTI_NVIC_DISABLE+0xa8>)
 8000624:	681b      	ldr	r3, [r3, #0]
 8000626:	4a11      	ldr	r2, [pc, #68]	; (800066c <EXTI_NVIC_DISABLE+0xa8>)
 8000628:	f443 7300 	orr.w	r3, r3, #512	; 0x200
 800062c:	6013      	str	r3, [r2, #0]
 800062e:	e018      	b.n	8000662 <EXTI_NVIC_DISABLE+0x9e>
 8000630:	4b0e      	ldr	r3, [pc, #56]	; (800066c <EXTI_NVIC_DISABLE+0xa8>)
 8000632:	681b      	ldr	r3, [r3, #0]
 8000634:	4a0d      	ldr	r2, [pc, #52]	; (800066c <EXTI_NVIC_DISABLE+0xa8>)
 8000636:	f443 6380 	orr.w	r3, r3, #1024	; 0x400
 800063a:	6013      	str	r3, [r2, #0]
 800063c:	e011      	b.n	8000662 <EXTI_NVIC_DISABLE+0x9e>
 800063e:	4b0b      	ldr	r3, [pc, #44]	; (800066c <EXTI_NVIC_DISABLE+0xa8>)
 8000640:	681b      	ldr	r3, [r3, #0]
 8000642:	4a0a      	ldr	r2, [pc, #40]	; (800066c <EXTI_NVIC_DISABLE+0xa8>)
 8000644:	f443 0300 	orr.w	r3, r3, #8388608	; 0x800000
 8000648:	6013      	str	r3, [r2, #0]
 800064a:	e00a      	b.n	8000662 <EXTI_NVIC_DISABLE+0x9e>
 800064c:	687b      	ldr	r3, [r7, #4]
 800064e:	7a9b      	ldrb	r3, [r3, #10]
 8000650:	2b3f      	cmp	r3, #63	; 0x3f
 8000652:	d806      	bhi.n	8000662 <EXTI_NVIC_DISABLE+0x9e>
 8000654:	4b06      	ldr	r3, [pc, #24]	; (8000670 <EXTI_NVIC_DISABLE+0xac>)
 8000656:	681b      	ldr	r3, [r3, #0]
 8000658:	4a05      	ldr	r2, [pc, #20]	; (8000670 <EXTI_NVIC_DISABLE+0xac>)
 800065a:	f443 7380 	orr.w	r3, r3, #256	; 0x100
 800065e:	6013      	str	r3, [r2, #0]
 8000660:	e7ff      	b.n	8000662 <EXTI_NVIC_DISABLE+0x9e>
 8000662:	bf00      	nop
 8000664:	370c      	adds	r7, #12
 8000666:	46bd      	mov	sp, r7
 8000668:	bc80      	pop	{r7}
 800066a:	4770      	bx	lr
 800066c:	e000e180 	and	lr, r0, r0, lsl #3
 8000670:	e000e184 	and	lr, r0, r4, lsl #3

08000674 <Update_EXTI>:
 8000674:	b580      	push	{r7, lr}
 8000676:	b084      	sub	sp, #16
 8000678:	af00      	add	r7, sp, #0
 800067a:	6078      	str	r0, [r7, #4]
 800067c:	687b      	ldr	r3, [r7, #4]
 800067e:	891b      	ldrh	r3, [r3, #8]
 8000680:	813b      	strh	r3, [r7, #8]
 8000682:	2308      	movs	r3, #8
 8000684:	72bb      	strb	r3, [r7, #10]
 8000686:	687b      	ldr	r3, [r7, #4]
 8000688:	685b      	ldr	r3, [r3, #4]
 800068a:	f107 0208 	add.w	r2, r7, #8
 800068e:	4611      	mov	r1, r2
 8000690:	4618      	mov	r0, r3
 8000692:	f7ff feb7 	bl	8000404 <MCAL_GPIO_Init>
 8000696:	687b      	ldr	r3, [r7, #4]
 8000698:	881b      	ldrh	r3, [r3, #0]
 800069a:	089b      	lsrs	r3, r3, #2
 800069c:	b29b      	uxth	r3, r3
 800069e:	73fb      	strb	r3, [r7, #15]
 80006a0:	687b      	ldr	r3, [r7, #4]
 80006a2:	881b      	ldrh	r3, [r3, #0]
 80006a4:	b2db      	uxtb	r3, r3
 80006a6:	f003 0303 	and.w	r3, r3, #3
 80006aa:	b2db      	uxtb	r3, r3
 80006ac:	009b      	lsls	r3, r3, #2
 80006ae:	73bb      	strb	r3, [r7, #14]
 80006b0:	4a5c      	ldr	r2, [pc, #368]	; (8000824 <Update_EXTI+0x1b0>)
 80006b2:	7bfb      	ldrb	r3, [r7, #15]
 80006b4:	3302      	adds	r3, #2
 80006b6:	f852 2023 	ldr.w	r2, [r2, r3, lsl #2]
 80006ba:	7bbb      	ldrb	r3, [r7, #14]
 80006bc:	210f      	movs	r1, #15
 80006be:	fa01 f303 	lsl.w	r3, r1, r3
 80006c2:	43db      	mvns	r3, r3
 80006c4:	4618      	mov	r0, r3
 80006c6:	4957      	ldr	r1, [pc, #348]	; (8000824 <Update_EXTI+0x1b0>)
 80006c8:	7bfb      	ldrb	r3, [r7, #15]
 80006ca:	4002      	ands	r2, r0
 80006cc:	3302      	adds	r3, #2
 80006ce:	f841 2023 	str.w	r2, [r1, r3, lsl #2]
 80006d2:	4a54      	ldr	r2, [pc, #336]	; (8000824 <Update_EXTI+0x1b0>)
 80006d4:	7bfb      	ldrb	r3, [r7, #15]
 80006d6:	3302      	adds	r3, #2
 80006d8:	f852 2023 	ldr.w	r2, [r2, r3, lsl #2]
 80006dc:	687b      	ldr	r3, [r7, #4]
 80006de:	685b      	ldr	r3, [r3, #4]
 80006e0:	4951      	ldr	r1, [pc, #324]	; (8000828 <Update_EXTI+0x1b4>)
 80006e2:	428b      	cmp	r3, r1
 80006e4:	d00f      	beq.n	8000706 <Update_EXTI+0x92>
 80006e6:	687b      	ldr	r3, [r7, #4]
 80006e8:	685b      	ldr	r3, [r3, #4]
 80006ea:	4950      	ldr	r1, [pc, #320]	; (800082c <Update_EXTI+0x1b8>)
 80006ec:	428b      	cmp	r3, r1
 80006ee:	d008      	beq.n	8000702 <Update_EXTI+0x8e>
 80006f0:	687b      	ldr	r3, [r7, #4]
 80006f2:	685b      	ldr	r3, [r3, #4]
 80006f4:	494e      	ldr	r1, [pc, #312]	; (8000830 <Update_EXTI+0x1bc>)
 80006f6:	428b      	cmp	r3, r1
 80006f8:	d101      	bne.n	80006fe <Update_EXTI+0x8a>
 80006fa:	2302      	movs	r3, #2
 80006fc:	e004      	b.n	8000708 <Update_EXTI+0x94>
 80006fe:	2303      	movs	r3, #3
 8000700:	e002      	b.n	8000708 <Update_EXTI+0x94>
 8000702:	2301      	movs	r3, #1
 8000704:	e000      	b.n	8000708 <Update_EXTI+0x94>
 8000706:	2300      	movs	r3, #0
 8000708:	7bb9      	ldrb	r1, [r7, #14]
 800070a:	408b      	lsls	r3, r1
 800070c:	4618      	mov	r0, r3
 800070e:	4945      	ldr	r1, [pc, #276]	; (8000824 <Update_EXTI+0x1b0>)
 8000710:	7bfb      	ldrb	r3, [r7, #15]
 8000712:	4302      	orrs	r2, r0
 8000714:	3302      	adds	r3, #2
 8000716:	f841 2023 	str.w	r2, [r1, r3, lsl #2]
 800071a:	4b46      	ldr	r3, [pc, #280]	; (8000834 <Update_EXTI+0x1c0>)
 800071c:	689b      	ldr	r3, [r3, #8]
 800071e:	687a      	ldr	r2, [r7, #4]
 8000720:	8812      	ldrh	r2, [r2, #0]
 8000722:	4611      	mov	r1, r2
 8000724:	2201      	movs	r2, #1
 8000726:	408a      	lsls	r2, r1
 8000728:	43d2      	mvns	r2, r2
 800072a:	4611      	mov	r1, r2
 800072c:	4a41      	ldr	r2, [pc, #260]	; (8000834 <Update_EXTI+0x1c0>)
 800072e:	400b      	ands	r3, r1
 8000730:	6093      	str	r3, [r2, #8]
 8000732:	4b40      	ldr	r3, [pc, #256]	; (8000834 <Update_EXTI+0x1c0>)
 8000734:	68db      	ldr	r3, [r3, #12]
 8000736:	687a      	ldr	r2, [r7, #4]
 8000738:	8812      	ldrh	r2, [r2, #0]
 800073a:	4611      	mov	r1, r2
 800073c:	2201      	movs	r2, #1
 800073e:	408a      	lsls	r2, r1
 8000740:	43d2      	mvns	r2, r2
 8000742:	4611      	mov	r1, r2
 8000744:	4a3b      	ldr	r2, [pc, #236]	; (8000834 <Update_EXTI+0x1c0>)
 8000746:	400b      	ands	r3, r1
 8000748:	60d3      	str	r3, [r2, #12]
 800074a:	687b      	ldr	r3, [r7, #4]
 800074c:	7b1b      	ldrb	r3, [r3, #12]
 800074e:	2b00      	cmp	r3, #0
 8000750:	d10b      	bne.n	800076a <Update_EXTI+0xf6>
 8000752:	4b38      	ldr	r3, [pc, #224]	; (8000834 <Update_EXTI+0x1c0>)
 8000754:	689b      	ldr	r3, [r3, #8]
 8000756:	687a      	ldr	r2, [r7, #4]
 8000758:	8812      	ldrh	r2, [r2, #0]
 800075a:	4611      	mov	r1, r2
 800075c:	2201      	movs	r2, #1
 800075e:	408a      	lsls	r2, r1
 8000760:	4611      	mov	r1, r2
 8000762:	4a34      	ldr	r2, [pc, #208]	; (8000834 <Update_EXTI+0x1c0>)
 8000764:	430b      	orrs	r3, r1
 8000766:	6093      	str	r3, [r2, #8]
 8000768:	e029      	b.n	80007be <Update_EXTI+0x14a>
 800076a:	687b      	ldr	r3, [r7, #4]
 800076c:	7b1b      	ldrb	r3, [r3, #12]
 800076e:	2b01      	cmp	r3, #1
 8000770:	d10b      	bne.n	800078a <Update_EXTI+0x116>
 8000772:	4b30      	ldr	r3, [pc, #192]	; (8000834 <Update_EXTI+0x1c0>)
 8000774:	68db      	ldr	r3, [r3, #12]
 8000776:	687a      	ldr	r2, [r7, #4]
 8000778:	8812      	ldrh	r2, [r2, #0]
 800077a:	4611      	mov	r1, r2
 800077c:	2201      	movs	r2, #1
 800077e:	408a      	lsls	r2, r1
 8000780:	4611      	mov	r1, r2
 8000782:	4a2c      	ldr	r2, [pc, #176]	; (8000834 <Update_EXTI+0x1c0>)
 8000784:	430b      	orrs	r3, r1
 8000786:	60d3      	str	r3, [r2, #12]
 8000788:	e019      	b.n	80007be <Update_EXTI+0x14a>
 800078a:	687b      	ldr	r3, [r7, #4]
 800078c:	7b1b      	ldrb	r3, [r3, #12]
 800078e:	2b02      	cmp	r3, #2
 8000790:	d115      	bne.n	80007be <Update_EXTI+0x14a>
 8000792:	4b28      	ldr	r3, [pc, #160]	; (8000834 <Update_EXTI+0x1c0>)
 8000794:	689b      	ldr	r3, [r3, #8]
 8000796:	687a      	ldr	r2, [r7, #4]
 8000798:	8812      	ldrh	r2, [r2, #0]
 800079a:	4611      	mov	r1, r2
 800079c:	2201      	movs	r2, #1
 800079e:	408a      	lsls	r2, r1
 80007a0:	4611      	mov	r1, r2
 80007a2:	4a24      	ldr	r2, [pc, #144]	; (8000834 <Update_EXTI+0x1c0>)
 80007a4:	430b      	orrs	r3, r1
 80007a6:	6093      	str	r3, [r2, #8]
 80007a8:	4b22      	ldr	r3, [pc, #136]	; (8000834 <Update_EXTI+0x1c0>)
 80007aa:	68db      	ldr	r3, [r3, #12]
 80007ac:	687a      	ldr	r2, [r7, #4]
 80007ae:	8812      	ldrh	r2, [r2, #0]
 80007b0:	4611      	mov	r1, r2
 80007b2:	2201      	movs	r2, #1
 80007b4:	408a      	lsls	r2, r1
 80007b6:	4611      	mov	r1, r2
 80007b8:	4a1e      	ldr	r2, [pc, #120]	; (8000834 <Update_EXTI+0x1c0>)
 80007ba:	430b      	orrs	r3, r1
 80007bc:	60d3      	str	r3, [r2, #12]
 80007be:	687b      	ldr	r3, [r7, #4]
 80007c0:	881b      	ldrh	r3, [r3, #0]
 80007c2:	4619      	mov	r1, r3
 80007c4:	687b      	ldr	r3, [r7, #4]
 80007c6:	691b      	ldr	r3, [r3, #16]
 80007c8:	4a1b      	ldr	r2, [pc, #108]	; (8000838 <Update_EXTI+0x1c4>)
 80007ca:	f842 3021 	str.w	r3, [r2, r1, lsl #2]
 80007ce:	687b      	ldr	r3, [r7, #4]
 80007d0:	7b5b      	ldrb	r3, [r3, #13]
 80007d2:	2b01      	cmp	r3, #1
 80007d4:	d10e      	bne.n	80007f4 <Update_EXTI+0x180>
 80007d6:	4b17      	ldr	r3, [pc, #92]	; (8000834 <Update_EXTI+0x1c0>)
 80007d8:	681b      	ldr	r3, [r3, #0]
 80007da:	687a      	ldr	r2, [r7, #4]
 80007dc:	8812      	ldrh	r2, [r2, #0]
 80007de:	4611      	mov	r1, r2
 80007e0:	2201      	movs	r2, #1
 80007e2:	408a      	lsls	r2, r1
 80007e4:	4611      	mov	r1, r2
 80007e6:	4a13      	ldr	r2, [pc, #76]	; (8000834 <Update_EXTI+0x1c0>)
 80007e8:	430b      	orrs	r3, r1
 80007ea:	6013      	str	r3, [r2, #0]
 80007ec:	6878      	ldr	r0, [r7, #4]
 80007ee:	f7ff fe91 	bl	8000514 <EXTI_NVIC_ENABLE>
 80007f2:	e012      	b.n	800081a <Update_EXTI+0x1a6>
 80007f4:	687b      	ldr	r3, [r7, #4]
 80007f6:	7b5b      	ldrb	r3, [r3, #13]
 80007f8:	2b00      	cmp	r3, #0
 80007fa:	d10e      	bne.n	800081a <Update_EXTI+0x1a6>
 80007fc:	4b0d      	ldr	r3, [pc, #52]	; (8000834 <Update_EXTI+0x1c0>)
 80007fe:	681b      	ldr	r3, [r3, #0]
 8000800:	687a      	ldr	r2, [r7, #4]
 8000802:	8812      	ldrh	r2, [r2, #0]
 8000804:	4611      	mov	r1, r2
 8000806:	2201      	movs	r2, #1
 8000808:	408a      	lsls	r2, r1
 800080a:	43d2      	mvns	r2, r2
 800080c:	4611      	mov	r1, r2
 800080e:	4a09      	ldr	r2, [pc, #36]	; (8000834 <Update_EXTI+0x1c0>)
 8000810:	400b      	ands	r3, r1
 8000812:	6013      	str	r3, [r2, #0]
 8000814:	6878      	ldr	r0, [r7, #4]
 8000816:	f7ff fed5 	bl	80005c4 <EXTI_NVIC_DISABLE>
 800081a:	bf00      	nop
 800081c:	3710      	adds	r7, #16
 800081e:	46bd      	mov	sp, r7
 8000820:	bd80      	pop	{r7, pc}
 8000822:	bf00      	nop
 8000824:	40010000 	andmi	r0, r1, r0
 8000828:	40010800 	andmi	r0, r1, r0, lsl #16
 800082c:	40010c00 	andmi	r0, r1, r0, lsl #24
 8000830:	40011000 	andmi	r1, r1, r0
 8000834:	40010400 	andmi	r0, r1, r0, lsl #8
 8000838:	20000034 	andcs	r0, r0, r4, lsr r0

0800083c <MCAL_EXTI_GPIO_Init>:
 800083c:	b580      	push	{r7, lr}
 800083e:	b082      	sub	sp, #8
 8000840:	af00      	add	r7, sp, #0
 8000842:	6078      	str	r0, [r7, #4]
 8000844:	6878      	ldr	r0, [r7, #4]
 8000846:	f7ff ff15 	bl	8000674 <Update_EXTI>
 800084a:	bf00      	nop
 800084c:	3708      	adds	r7, #8
 800084e:	46bd      	mov	sp, r7
 8000850:	bd80      	pop	{r7, pc}
	...

08000854 <EXTI0_IRQHandler>:
 8000854:	b580      	push	{r7, lr}
 8000856:	af00      	add	r7, sp, #0
 8000858:	4b05      	ldr	r3, [pc, #20]	; (8000870 <EXTI0_IRQHandler+0x1c>)
 800085a:	695b      	ldr	r3, [r3, #20]
 800085c:	4a04      	ldr	r2, [pc, #16]	; (8000870 <EXTI0_IRQHandler+0x1c>)
 800085e:	f043 0301 	orr.w	r3, r3, #1
 8000862:	6153      	str	r3, [r2, #20]
 8000864:	4b03      	ldr	r3, [pc, #12]	; (8000874 <EXTI0_IRQHandler+0x20>)
 8000866:	681b      	ldr	r3, [r3, #0]
 8000868:	4798      	blx	r3
 800086a:	bf00      	nop
 800086c:	bd80      	pop	{r7, pc}
 800086e:	bf00      	nop
 8000870:	40010400 	andmi	r0, r1, r0, lsl #8
 8000874:	20000034 	andcs	r0, r0, r4, lsr r0

08000878 <EXTI1_IRQHandler>:
 8000878:	b580      	push	{r7, lr}
 800087a:	af00      	add	r7, sp, #0
 800087c:	4b05      	ldr	r3, [pc, #20]	; (8000894 <EXTI1_IRQHandler+0x1c>)
 800087e:	695b      	ldr	r3, [r3, #20]
 8000880:	4a04      	ldr	r2, [pc, #16]	; (8000894 <EXTI1_IRQHandler+0x1c>)
 8000882:	f043 0302 	orr.w	r3, r3, #2
 8000886:	6153      	str	r3, [r2, #20]
 8000888:	4b03      	ldr	r3, [pc, #12]	; (8000898 <EXTI1_IRQHandler+0x20>)
 800088a:	685b      	ldr	r3, [r3, #4]
 800088c:	4798      	blx	r3
 800088e:	bf00      	nop
 8000890:	bd80      	pop	{r7, pc}
 8000892:	bf00      	nop
 8000894:	40010400 	andmi	r0, r1, r0, lsl #8
 8000898:	20000034 	andcs	r0, r0, r4, lsr r0

0800089c <EXTI2_IRQHandler>:
 800089c:	b580      	push	{r7, lr}
 800089e:	af00      	add	r7, sp, #0
 80008a0:	4b05      	ldr	r3, [pc, #20]	; (80008b8 <EXTI2_IRQHandler+0x1c>)
 80008a2:	695b      	ldr	r3, [r3, #20]
 80008a4:	4a04      	ldr	r2, [pc, #16]	; (80008b8 <EXTI2_IRQHandler+0x1c>)
 80008a6:	f043 0304 	orr.w	r3, r3, #4
 80008aa:	6153      	str	r3, [r2, #20]
 80008ac:	4b03      	ldr	r3, [pc, #12]	; (80008bc <EXTI2_IRQHandler+0x20>)
 80008ae:	689b      	ldr	r3, [r3, #8]
 80008b0:	4798      	blx	r3
 80008b2:	bf00      	nop
 80008b4:	bd80      	pop	{r7, pc}
 80008b6:	bf00      	nop
 80008b8:	40010400 	andmi	r0, r1, r0, lsl #8
 80008bc:	20000034 	andcs	r0, r0, r4, lsr r0

080008c0 <EXTI3_IRQHandler>:
 80008c0:	b580      	push	{r7, lr}
 80008c2:	af00      	add	r7, sp, #0
 80008c4:	4b05      	ldr	r3, [pc, #20]	; (80008dc <EXTI3_IRQHandler+0x1c>)
 80008c6:	695b      	ldr	r3, [r3, #20]
 80008c8:	4a04      	ldr	r2, [pc, #16]	; (80008dc <EXTI3_IRQHandler+0x1c>)
 80008ca:	f043 0308 	orr.w	r3, r3, #8
 80008ce:	6153      	str	r3, [r2, #20]
 80008d0:	4b03      	ldr	r3, [pc, #12]	; (80008e0 <EXTI3_IRQHandler+0x20>)
 80008d2:	68db      	ldr	r3, [r3, #12]
 80008d4:	4798      	blx	r3
 80008d6:	bf00      	nop
 80008d8:	bd80      	pop	{r7, pc}
 80008da:	bf00      	nop
 80008dc:	40010400 	andmi	r0, r1, r0, lsl #8
 80008e0:	20000034 	andcs	r0, r0, r4, lsr r0

080008e4 <EXTI4_IRQHandler>:
 80008e4:	b580      	push	{r7, lr}
 80008e6:	af00      	add	r7, sp, #0
 80008e8:	4b05      	ldr	r3, [pc, #20]	; (8000900 <EXTI4_IRQHandler+0x1c>)
 80008ea:	695b      	ldr	r3, [r3, #20]
 80008ec:	4a04      	ldr	r2, [pc, #16]	; (8000900 <EXTI4_IRQHandler+0x1c>)
 80008ee:	f043 0310 	orr.w	r3, r3, #16
 80008f2:	6153      	str	r3, [r2, #20]
 80008f4:	4b03      	ldr	r3, [pc, #12]	; (8000904 <EXTI4_IRQHandler+0x20>)
 80008f6:	691b      	ldr	r3, [r3, #16]
 80008f8:	4798      	blx	r3
 80008fa:	bf00      	nop
 80008fc:	bd80      	pop	{r7, pc}
 80008fe:	bf00      	nop
 8000900:	40010400 	andmi	r0, r1, r0, lsl #8
 8000904:	20000034 	andcs	r0, r0, r4, lsr r0

08000908 <EXTI9_5_IRQHandler>:
 8000908:	b580      	push	{r7, lr}
 800090a:	af00      	add	r7, sp, #0
 800090c:	4b26      	ldr	r3, [pc, #152]	; (80009a8 <EXTI9_5_IRQHandler+0xa0>)
 800090e:	695b      	ldr	r3, [r3, #20]
 8000910:	f003 0320 	and.w	r3, r3, #32
 8000914:	2b00      	cmp	r3, #0
 8000916:	d008      	beq.n	800092a <EXTI9_5_IRQHandler+0x22>
 8000918:	4b23      	ldr	r3, [pc, #140]	; (80009a8 <EXTI9_5_IRQHandler+0xa0>)
 800091a:	695b      	ldr	r3, [r3, #20]
 800091c:	4a22      	ldr	r2, [pc, #136]	; (80009a8 <EXTI9_5_IRQHandler+0xa0>)
 800091e:	f043 0320 	orr.w	r3, r3, #32
 8000922:	6153      	str	r3, [r2, #20]
 8000924:	4b21      	ldr	r3, [pc, #132]	; (80009ac <EXTI9_5_IRQHandler+0xa4>)
 8000926:	695b      	ldr	r3, [r3, #20]
 8000928:	4798      	blx	r3
 800092a:	4b1f      	ldr	r3, [pc, #124]	; (80009a8 <EXTI9_5_IRQHandler+0xa0>)
 800092c:	695b      	ldr	r3, [r3, #20]
 800092e:	f003 0340 	and.w	r3, r3, #64	; 0x40
 8000932:	2b00      	cmp	r3, #0
 8000934:	d008      	beq.n	8000948 <EXTI9_5_IRQHandler+0x40>
 8000936:	4b1c      	ldr	r3, [pc, #112]	; (80009a8 <EXTI9_5_IRQHandler+0xa0>)
 8000938:	695b      	ldr	r3, [r3, #20]
 800093a:	4a1b      	ldr	r2, [pc, #108]	; (80009a8 <EXTI9_5_IRQHandler+0xa0>)
 800093c:	f043 0340 	orr.w	r3, r3, #64	; 0x40
 8000940:	6153      	str	r3, [r2, #20]
 8000942:	4b1a      	ldr	r3, [pc, #104]	; (80009ac <EXTI9_5_IRQHandler+0xa4>)
 8000944:	699b      	ldr	r3, [r3, #24]
 8000946:	4798      	blx	r3
 8000948:	4b17      	ldr	r3, [pc, #92]	; (80009a8 <EXTI9_5_IRQHandler+0xa0>)
 800094a:	695b      	ldr	r3, [r3, #20]
 800094c:	f003 0380 	and.w	r3, r3, #128	; 0x80
 8000950:	2b00      	cmp	r3, #0
 8000952:	d008      	beq.n	8000966 <EXTI9_5_IRQHandler+0x5e>
 8000954:	4b14      	ldr	r3, [pc, #80]	; (80009a8 <EXTI9_5_IRQHandler+0xa0>)
 8000956:	695b      	ldr	r3, [r3, #20]
 8000958:	4a13      	ldr	r2, [pc, #76]	; (80009a8 <EXTI9_5_IRQHandler+0xa0>)
 800095a:	f043 0380 	orr.w	r3, r3, #128	; 0x80
 800095e:	6153      	str	r3, [r2, #20]
 8000960:	4b12      	ldr	r3, [pc, #72]	; (80009ac <EXTI9_5_IRQHandler+0xa4>)
 8000962:	69db      	ldr	r3, [r3, #28]
 8000964:	4798      	blx	r3
 8000966:	4b10      	ldr	r3, [pc, #64]	; (80009a8 <EXTI9_5_IRQHandler+0xa0>)
 8000968:	695b      	ldr	r3, [r3, #20]
 800096a:	f403 7380 	and.w	r3, r3, #256	; 0x100
 800096e:	2b00      	cmp	r3, #0
 8000970:	d008      	beq.n	8000984 <EXTI9_5_IRQHandler+0x7c>
 8000972:	4b0d      	ldr	r3, [pc, #52]	; (80009a8 <EXTI9_5_IRQHandler+0xa0>)
 8000974:	695b      	ldr	r3, [r3, #20]
 8000976:	4a0c      	ldr	r2, [pc, #48]	; (80009a8 <EXTI9_5_IRQHandler+0xa0>)
 8000978:	f443 7380 	orr.w	r3, r3, #256	; 0x100
 800097c:	6153      	str	r3, [r2, #20]
 800097e:	4b0b      	ldr	r3, [pc, #44]	; (80009ac <EXTI9_5_IRQHandler+0xa4>)
 8000980:	6a1b      	ldr	r3, [r3, #32]
 8000982:	4798      	blx	r3
 8000984:	4b08      	ldr	r3, [pc, #32]	; (80009a8 <EXTI9_5_IRQHandler+0xa0>)
 8000986:	695b      	ldr	r3, [r3, #20]
 8000988:	f403 7300 	and.w	r3, r3, #512	; 0x200
 800098c:	2b00      	cmp	r3, #0
 800098e:	d008      	beq.n	80009a2 <EXTI9_5_IRQHandler+0x9a>
 8000990:	4b05      	ldr	r3, [pc, #20]	; (80009a8 <EXTI9_5_IRQHandler+0xa0>)
 8000992:	695b      	ldr	r3, [r3, #20]
 8000994:	4a04      	ldr	r2, [pc, #16]	; (80009a8 <EXTI9_5_IRQHandler+0xa0>)
 8000996:	f443 7300 	orr.w	r3, r3, #512	; 0x200
 800099a:	6153      	str	r3, [r2, #20]
 800099c:	4b03      	ldr	r3, [pc, #12]	; (80009ac <EXTI9_5_IRQHandler+0xa4>)
 800099e:	6a5b      	ldr	r3, [r3, #36]	; 0x24
 80009a0:	4798      	blx	r3
 80009a2:	bf00      	nop
 80009a4:	bd80      	pop	{r7, pc}
 80009a6:	bf00      	nop
 80009a8:	40010400 	andmi	r0, r1, r0, lsl #8
 80009ac:	20000034 	andcs	r0, r0, r4, lsr r0

080009b0 <EXTI15_10_IRQHandler>:
 80009b0:	b580      	push	{r7, lr}
 80009b2:	af00      	add	r7, sp, #0
 80009b4:	4b2d      	ldr	r3, [pc, #180]	; (8000a6c <EXTI15_10_IRQHandler+0xbc>)
 80009b6:	695b      	ldr	r3, [r3, #20]
 80009b8:	f403 6380 	and.w	r3, r3, #1024	; 0x400
 80009bc:	2b00      	cmp	r3, #0
 80009be:	d008      	beq.n	80009d2 <EXTI15_10_IRQHandler+0x22>
 80009c0:	4b2a      	ldr	r3, [pc, #168]	; (8000a6c <EXTI15_10_IRQHandler+0xbc>)
 80009c2:	695b      	ldr	r3, [r3, #20]
 80009c4:	4a29      	ldr	r2, [pc, #164]	; (8000a6c <EXTI15_10_IRQHandler+0xbc>)
 80009c6:	f443 6380 	orr.w	r3, r3, #1024	; 0x400
 80009ca:	6153      	str	r3, [r2, #20]
 80009cc:	4b28      	ldr	r3, [pc, #160]	; (8000a70 <EXTI15_10_IRQHandler+0xc0>)
 80009ce:	6a9b      	ldr	r3, [r3, #40]	; 0x28
 80009d0:	4798      	blx	r3
 80009d2:	4b26      	ldr	r3, [pc, #152]	; (8000a6c <EXTI15_10_IRQHandler+0xbc>)
 80009d4:	695b      	ldr	r3, [r3, #20]
 80009d6:	f403 6300 	and.w	r3, r3, #2048	; 0x800
 80009da:	2b00      	cmp	r3, #0
 80009dc:	d008      	beq.n	80009f0 <EXTI15_10_IRQHandler+0x40>
 80009de:	4b23      	ldr	r3, [pc, #140]	; (8000a6c <EXTI15_10_IRQHandler+0xbc>)
 80009e0:	695b      	ldr	r3, [r3, #20]
 80009e2:	4a22      	ldr	r2, [pc, #136]	; (8000a6c <EXTI15_10_IRQHandler+0xbc>)
 80009e4:	f443 6300 	orr.w	r3, r3, #2048	; 0x800
 80009e8:	6153      	str	r3, [r2, #20]
 80009ea:	4b21      	ldr	r3, [pc, #132]	; (8000a70 <EXTI15_10_IRQHandler+0xc0>)
 80009ec:	6adb      	ldr	r3, [r3, #44]	; 0x2c
 80009ee:	4798      	blx	r3
 80009f0:	4b1e      	ldr	r3, [pc, #120]	; (8000a6c <EXTI15_10_IRQHandler+0xbc>)
 80009f2:	695b      	ldr	r3, [r3, #20]
 80009f4:	f403 5380 	and.w	r3, r3, #4096	; 0x1000
 80009f8:	2b00      	cmp	r3, #0
 80009fa:	d008      	beq.n	8000a0e <EXTI15_10_IRQHandler+0x5e>
 80009fc:	4b1b      	ldr	r3, [pc, #108]	; (8000a6c <EXTI15_10_IRQHandler+0xbc>)
 80009fe:	695b      	ldr	r3, [r3, #20]
 8000a00:	4a1a      	ldr	r2, [pc, #104]	; (8000a6c <EXTI15_10_IRQHandler+0xbc>)
 8000a02:	f443 5380 	orr.w	r3, r3, #4096	; 0x1000
 8000a06:	6153      	str	r3, [r2, #20]
 8000a08:	4b19      	ldr	r3, [pc, #100]	; (8000a70 <EXTI15_10_IRQHandler+0xc0>)
 8000a0a:	6b1b      	ldr	r3, [r3, #48]	; 0x30
 8000a0c:	4798      	blx	r3
 8000a0e:	4b17      	ldr	r3, [pc, #92]	; (8000a6c <EXTI15_10_IRQHandler+0xbc>)
 8000a10:	695b      	ldr	r3, [r3, #20]
 8000a12:	f403 5300 	and.w	r3, r3, #8192	; 0x2000
 8000a16:	2b00      	cmp	r3, #0
 8000a18:	d008      	beq.n	8000a2c <EXTI15_10_IRQHandler+0x7c>
 8000a1a:	4b14      	ldr	r3, [pc, #80]	; (8000a6c <EXTI15_10_IRQHandler+0xbc>)
 8000a1c:	695b      	ldr	r3, [r3, #20]
 8000a1e:	4a13      	ldr	r2, [pc, #76]	; (8000a6c <EXTI15_10_IRQHandler+0xbc>)
 8000a20:	f443 5300 	orr.w	r3, r3, #8192	; 0x2000
 8000a24:	6153      	str	r3, [r2, #20]
 8000a26:	4b12      	ldr	r3, [pc, #72]	; (8000a70 <EXTI15_10_IRQHandler+0xc0>)
 8000a28:	6b5b      	ldr	r3, [r3, #52]	; 0x34
 8000a2a:	4798      	blx	r3
 8000a2c:	4b0f      	ldr	r3, [pc, #60]	; (8000a6c <EXTI15_10_IRQHandler+0xbc>)
 8000a2e:	695b      	ldr	r3, [r3, #20]
 8000a30:	f403 4380 	and.w	r3, r3, #16384	; 0x4000
 8000a34:	2b00      	cmp	r3, #0
 8000a36:	d008      	beq.n	8000a4a <EXTI15_10_IRQHandler+0x9a>
 8000a38:	4b0c      	ldr	r3, [pc, #48]	; (8000a6c <EXTI15_10_IRQHandler+0xbc>)
 8000a3a:	695b      	ldr	r3, [r3, #20]
 8000a3c:	4a0b      	ldr	r2, [pc, #44]	; (8000a6c <EXTI15_10_IRQHandler+0xbc>)
 8000a3e:	f443 4380 	orr.w	r3, r3, #16384	; 0x4000
 8000a42:	6153      	str	r3, [r2, #20]
 8000a44:	4b0a      	ldr	r3, [pc, #40]	; (8000a70 <EXTI15_10_IRQHandler+0xc0>)
 8000a46:	6b9b      	ldr	r3, [r3, #56]	; 0x38
 8000a48:	4798      	blx	r3
 8000a4a:	4b08      	ldr	r3, [pc, #32]	; (8000a6c <EXTI15_10_IRQHandler+0xbc>)
 8000a4c:	695b      	ldr	r3, [r3, #20]
 8000a4e:	f403 4300 	and.w	r3, r3, #32768	; 0x8000
 8000a52:	2b00      	cmp	r3, #0
 8000a54:	d008      	beq.n	8000a68 <EXTI15_10_IRQHandler+0xb8>
 8000a56:	4b05      	ldr	r3, [pc, #20]	; (8000a6c <EXTI15_10_IRQHandler+0xbc>)
 8000a58:	695b      	ldr	r3, [r3, #20]
 8000a5a:	4a04      	ldr	r2, [pc, #16]	; (8000a6c <EXTI15_10_IRQHandler+0xbc>)
 8000a5c:	f443 4300 	orr.w	r3, r3, #32768	; 0x8000
 8000a60:	6153      	str	r3, [r2, #20]
 8000a62:	4b03      	ldr	r3, [pc, #12]	; (8000a70 <EXTI15_10_IRQHandler+0xc0>)
 8000a64:	6bdb      	ldr	r3, [r3, #60]	; 0x3c
 8000a66:	4798      	blx	r3
 8000a68:	bf00      	nop
 8000a6a:	bd80      	pop	{r7, pc}
 8000a6c:	40010400 	andmi	r0, r1, r0, lsl #8
 8000a70:	20000034 	andcs	r0, r0, r4, lsr r0

08000a74 <I2C1_ER_IRQHandler>:
 8000a74:	b480      	push	{r7}
 8000a76:	af00      	add	r7, sp, #0
 8000a78:	bf00      	nop
 8000a7a:	46bd      	mov	sp, r7
 8000a7c:	bc80      	pop	{r7}
 8000a7e:	4770      	bx	lr

08000a80 <I2C1_EV_IRQHandler>:
 8000a80:	b580      	push	{r7, lr}
 8000a82:	b086      	sub	sp, #24
 8000a84:	af00      	add	r7, sp, #0
 8000a86:	2300      	movs	r3, #0
 8000a88:	607b      	str	r3, [r7, #4]
 8000a8a:	4b37      	ldr	r3, [pc, #220]	; (8000b68 <I2C1_EV_IRQHandler+0xe8>)
 8000a8c:	617b      	str	r3, [r7, #20]
 8000a8e:	697b      	ldr	r3, [r7, #20]
 8000a90:	685b      	ldr	r3, [r3, #4]
 8000a92:	f403 7300 	and.w	r3, r3, #512	; 0x200
 8000a96:	613b      	str	r3, [r7, #16]
 8000a98:	697b      	ldr	r3, [r7, #20]
 8000a9a:	685b      	ldr	r3, [r3, #4]
 8000a9c:	f403 6380 	and.w	r3, r3, #1024	; 0x400
 8000aa0:	60fb      	str	r3, [r7, #12]
 8000aa2:	697b      	ldr	r3, [r7, #20]
 8000aa4:	695b      	ldr	r3, [r3, #20]
 8000aa6:	f003 0310 	and.w	r3, r3, #16
 8000aaa:	60bb      	str	r3, [r7, #8]
 8000aac:	693b      	ldr	r3, [r7, #16]
 8000aae:	2b00      	cmp	r3, #0
 8000ab0:	d00a      	beq.n	8000ac8 <I2C1_EV_IRQHandler+0x48>
 8000ab2:	68bb      	ldr	r3, [r7, #8]
 8000ab4:	2b00      	cmp	r3, #0
 8000ab6:	d007      	beq.n	8000ac8 <I2C1_EV_IRQHandler+0x48>
 8000ab8:	697b      	ldr	r3, [r7, #20]
 8000aba:	681a      	ldr	r2, [r3, #0]
 8000abc:	697b      	ldr	r3, [r7, #20]
 8000abe:	601a      	str	r2, [r3, #0]
 8000ac0:	2100      	movs	r1, #0
 8000ac2:	6978      	ldr	r0, [r7, #20]
 8000ac4:	f000 f852 	bl	8000b6c <Slave_States>
 8000ac8:	697b      	ldr	r3, [r7, #20]
 8000aca:	695b      	ldr	r3, [r3, #20]
 8000acc:	f003 0302 	and.w	r3, r3, #2
 8000ad0:	60bb      	str	r3, [r7, #8]
 8000ad2:	693b      	ldr	r3, [r7, #16]
 8000ad4:	2b00      	cmp	r3, #0
 8000ad6:	d012      	beq.n	8000afe <I2C1_EV_IRQHandler+0x7e>
 8000ad8:	68bb      	ldr	r3, [r7, #8]
 8000ada:	2b00      	cmp	r3, #0
 8000adc:	d00f      	beq.n	8000afe <I2C1_EV_IRQHandler+0x7e>
 8000ade:	697b      	ldr	r3, [r7, #20]
 8000ae0:	699b      	ldr	r3, [r3, #24]
 8000ae2:	f003 0301 	and.w	r3, r3, #1
 8000ae6:	2b00      	cmp	r3, #0
 8000ae8:	d109      	bne.n	8000afe <I2C1_EV_IRQHandler+0x7e>
 8000aea:	697b      	ldr	r3, [r7, #20]
 8000aec:	695b      	ldr	r3, [r3, #20]
 8000aee:	607b      	str	r3, [r7, #4]
 8000af0:	697b      	ldr	r3, [r7, #20]
 8000af2:	699b      	ldr	r3, [r3, #24]
 8000af4:	607b      	str	r3, [r7, #4]
 8000af6:	2102      	movs	r1, #2
 8000af8:	6978      	ldr	r0, [r7, #20]
 8000afa:	f000 f837 	bl	8000b6c <Slave_States>
 8000afe:	697b      	ldr	r3, [r7, #20]
 8000b00:	695b      	ldr	r3, [r3, #20]
 8000b02:	f003 0380 	and.w	r3, r3, #128	; 0x80
 8000b06:	60bb      	str	r3, [r7, #8]
 8000b08:	693b      	ldr	r3, [r7, #16]
 8000b0a:	2b00      	cmp	r3, #0
 8000b0c:	d00f      	beq.n	8000b2e <I2C1_EV_IRQHandler+0xae>
 8000b0e:	68fb      	ldr	r3, [r7, #12]
 8000b10:	2b00      	cmp	r3, #0
 8000b12:	d00c      	beq.n	8000b2e <I2C1_EV_IRQHandler+0xae>
 8000b14:	68bb      	ldr	r3, [r7, #8]
 8000b16:	2b00      	cmp	r3, #0
 8000b18:	d009      	beq.n	8000b2e <I2C1_EV_IRQHandler+0xae>
 8000b1a:	697b      	ldr	r3, [r7, #20]
 8000b1c:	699b      	ldr	r3, [r3, #24]
 8000b1e:	f003 0301 	and.w	r3, r3, #1
 8000b22:	2b00      	cmp	r3, #0
 8000b24:	d103      	bne.n	8000b2e <I2C1_EV_IRQHandler+0xae>
 8000b26:	2103      	movs	r1, #3
 8000b28:	6978      	ldr	r0, [r7, #20]
 8000b2a:	f000 f81f 	bl	8000b6c <Slave_States>
 8000b2e:	697b      	ldr	r3, [r7, #20]
 8000b30:	695b      	ldr	r3, [r3, #20]
 8000b32:	f003 0340 	and.w	r3, r3, #64	; 0x40
 8000b36:	60bb      	str	r3, [r7, #8]
 8000b38:	693b      	ldr	r3, [r7, #16]
 8000b3a:	2b00      	cmp	r3, #0
 8000b3c:	d00f      	beq.n	8000b5e <I2C1_EV_IRQHandler+0xde>
 8000b3e:	68fb      	ldr	r3, [r7, #12]
 8000b40:	2b00      	cmp	r3, #0
 8000b42:	d00c      	beq.n	8000b5e <I2C1_EV_IRQHandler+0xde>
 8000b44:	68bb      	ldr	r3, [r7, #8]
 8000b46:	2b00      	cmp	r3, #0
 8000b48:	d009      	beq.n	8000b5e <I2C1_EV_IRQHandler+0xde>
 8000b4a:	697b      	ldr	r3, [r7, #20]
 8000b4c:	699b      	ldr	r3, [r3, #24]
 8000b4e:	f003 0301 	and.w	r3, r3, #1
 8000b52:	2b00      	cmp	r3, #0
 8000b54:	d103      	bne.n	8000b5e <I2C1_EV_IRQHandler+0xde>
 8000b56:	2104      	movs	r1, #4
 8000b58:	6978      	ldr	r0, [r7, #20]
 8000b5a:	f000 f807 	bl	8000b6c <Slave_States>
 8000b5e:	bf00      	nop
 8000b60:	3718      	adds	r7, #24
 8000b62:	46bd      	mov	sp, r7
 8000b64:	bd80      	pop	{r7, pc}
 8000b66:	bf00      	nop
 8000b68:	40005400 	andmi	r5, r0, r0, lsl #8

08000b6c <Slave_States>:
 8000b6c:	b580      	push	{r7, lr}
 8000b6e:	b084      	sub	sp, #16
 8000b70:	af00      	add	r7, sp, #0
 8000b72:	6078      	str	r0, [r7, #4]
 8000b74:	460b      	mov	r3, r1
 8000b76:	70fb      	strb	r3, [r7, #3]
 8000b78:	687b      	ldr	r3, [r7, #4]
 8000b7a:	4a32      	ldr	r2, [pc, #200]	; (8000c44 <Slave_States+0xd8>)
 8000b7c:	4293      	cmp	r3, r2
 8000b7e:	bf14      	ite	ne
 8000b80:	2301      	movne	r3, #1
 8000b82:	2300      	moveq	r3, #0
 8000b84:	b2db      	uxtb	r3, r3
 8000b86:	73fb      	strb	r3, [r7, #15]
 8000b88:	78fb      	ldrb	r3, [r7, #3]
 8000b8a:	2b04      	cmp	r3, #4
 8000b8c:	d856      	bhi.n	8000c3c <Slave_States+0xd0>
 8000b8e:	a201      	add	r2, pc, #4	; (adr r2, 8000b94 <Slave_States+0x28>)
 8000b90:	f852 f023 	ldr.w	pc, [r2, r3, lsl #2]
 8000b94:	08000baf 	stmdaeq	r0, {r0, r1, r2, r3, r5, r7, r8, r9, fp}
 8000b98:	08000ba9 	stmdaeq	r0, {r0, r3, r5, r7, r8, r9, fp}
 8000b9c:	08000bd3 	stmdaeq	r0, {r0, r1, r4, r6, r7, r8, r9, fp}
 8000ba0:	08000beb 	stmdaeq	r0, {r0, r1, r3, r5, r6, r7, r8, r9, fp}
 8000ba4:	08000c0f 	stmdaeq	r0, {r0, r1, r2, r3, sl, fp}
 8000ba8:	687b      	ldr	r3, [r7, #4]
 8000baa:	699b      	ldr	r3, [r3, #24]
 8000bac:	e046      	b.n	8000c3c <Slave_States+0xd0>
 8000bae:	687b      	ldr	r3, [r7, #4]
 8000bb0:	699b      	ldr	r3, [r3, #24]
 8000bb2:	f003 0304 	and.w	r3, r3, #4
 8000bb6:	2b00      	cmp	r3, #0
 8000bb8:	d03b      	beq.n	8000c32 <Slave_States+0xc6>
 8000bba:	7bfa      	ldrb	r2, [r7, #15]
 8000bbc:	4922      	ldr	r1, [pc, #136]	; (8000c48 <Slave_States+0xdc>)
 8000bbe:	4613      	mov	r3, r2
 8000bc0:	00db      	lsls	r3, r3, #3
 8000bc2:	4413      	add	r3, r2
 8000bc4:	009b      	lsls	r3, r3, #2
 8000bc6:	440b      	add	r3, r1
 8000bc8:	3320      	adds	r3, #32
 8000bca:	681b      	ldr	r3, [r3, #0]
 8000bcc:	2000      	movs	r0, #0
 8000bce:	4798      	blx	r3
 8000bd0:	e02f      	b.n	8000c32 <Slave_States+0xc6>
 8000bd2:	7bfa      	ldrb	r2, [r7, #15]
 8000bd4:	491c      	ldr	r1, [pc, #112]	; (8000c48 <Slave_States+0xdc>)
 8000bd6:	4613      	mov	r3, r2
 8000bd8:	00db      	lsls	r3, r3, #3
 8000bda:	4413      	add	r3, r2
 8000bdc:	009b      	lsls	r3, r3, #2
 8000bde:	440b      	add	r3, r1
 8000be0:	3320      	adds	r3, #32
 8000be2:	681b      	ldr	r3, [r3, #0]
 8000be4:	2002      	movs	r0, #2
 8000be6:	4798      	blx	r3
 8000be8:	e028      	b.n	8000c3c <Slave_States+0xd0>
 8000bea:	687b      	ldr	r3, [r7, #4]
 8000bec:	699b      	ldr	r3, [r3, #24]
 8000bee:	f003 0304 	and.w	r3, r3, #4
 8000bf2:	2b00      	cmp	r3, #0
 8000bf4:	d01f      	beq.n	8000c36 <Slave_States+0xca>
 8000bf6:	7bfa      	ldrb	r2, [r7, #15]
 8000bf8:	4913      	ldr	r1, [pc, #76]	; (8000c48 <Slave_States+0xdc>)
 8000bfa:	4613      	mov	r3, r2
 8000bfc:	00db      	lsls	r3, r3, #3
 8000bfe:	4413      	add	r3, r2
 8000c00:	009b      	lsls	r3, r3, #2
 8000c02:	440b      	add	r3, r1
 8000c04:	3320      	adds	r3, #32
 8000c06:	681b      	ldr	r3, [r3, #0]
 8000c08:	2003      	movs	r0, #3
 8000c0a:	4798      	blx	r3
 8000c0c:	e013      	b.n	8000c36 <Slave_States+0xca>
 8000c0e:	687b      	ldr	r3, [r7, #4]
 8000c10:	699b      	ldr	r3, [r3, #24]
 8000c12:	f003 0304 	and.w	r3, r3, #4
 8000c16:	2b00      	cmp	r3, #0
 8000c18:	d10f      	bne.n	8000c3a <Slave_States+0xce>
 8000c1a:	7bfa      	ldrb	r2, [r7, #15]
 8000c1c:	490a      	ldr	r1, [pc, #40]	; (8000c48 <Slave_States+0xdc>)
 8000c1e:	4613      	mov	r3, r2
 8000c20:	00db      	lsls	r3, r3, #3
 8000c22:	4413      	add	r3, r2
 8000c24:	009b      	lsls	r3, r3, #2
 8000c26:	440b      	add	r3, r1
 8000c28:	3320      	adds	r3, #32
 8000c2a:	681b      	ldr	r3, [r3, #0]
 8000c2c:	2004      	movs	r0, #4
 8000c2e:	4798      	blx	r3
 8000c30:	e003      	b.n	8000c3a <Slave_States+0xce>
 8000c32:	bf00      	nop
 8000c34:	e002      	b.n	8000c3c <Slave_States+0xd0>
 8000c36:	bf00      	nop
 8000c38:	e000      	b.n	8000c3c <Slave_States+0xd0>
 8000c3a:	bf00      	nop
 8000c3c:	bf00      	nop
 8000c3e:	3710      	adds	r7, #16
 8000c40:	46bd      	mov	sp, r7
 8000c42:	bd80      	pop	{r7, pc}
 8000c44:	40005400 	andmi	r5, r0, r0, lsl #8
 8000c48:	20000070 	andcs	r0, r0, r0, ror r0

08000c4c <I2C2_ER_IRQHandler>:
 8000c4c:	b480      	push	{r7}
 8000c4e:	af00      	add	r7, sp, #0
 8000c50:	bf00      	nop
 8000c52:	46bd      	mov	sp, r7
 8000c54:	bc80      	pop	{r7}
 8000c56:	4770      	bx	lr

08000c58 <I2C2_EV_IRQHandler>:
 8000c58:	b480      	push	{r7}
 8000c5a:	af00      	add	r7, sp, #0
 8000c5c:	bf00      	nop
 8000c5e:	46bd      	mov	sp, r7
 8000c60:	bc80      	pop	{r7}
 8000c62:	4770      	bx	lr

08000c64 <SPI1_IRQHandler>:
 8000c64:	b580      	push	{r7, lr}
 8000c66:	b082      	sub	sp, #8
 8000c68:	af00      	add	r7, sp, #0
 8000c6a:	4b13      	ldr	r3, [pc, #76]	; (8000cb8 <SPI1_IRQHandler+0x54>)
 8000c6c:	689b      	ldr	r3, [r3, #8]
 8000c6e:	085b      	lsrs	r3, r3, #1
 8000c70:	f003 0301 	and.w	r3, r3, #1
 8000c74:	b2da      	uxtb	r2, r3
 8000c76:	793b      	ldrb	r3, [r7, #4]
 8000c78:	f362 0300 	bfi	r3, r2, #0, #1
 8000c7c:	713b      	strb	r3, [r7, #4]
 8000c7e:	4b0e      	ldr	r3, [pc, #56]	; (8000cb8 <SPI1_IRQHandler+0x54>)
 8000c80:	689b      	ldr	r3, [r3, #8]
 8000c82:	f003 0301 	and.w	r3, r3, #1
 8000c86:	b2da      	uxtb	r2, r3
 8000c88:	793b      	ldrb	r3, [r7, #4]
 8000c8a:	f362 0341 	bfi	r3, r2, #1, #1
 8000c8e:	713b      	strb	r3, [r7, #4]
 8000c90:	4b09      	ldr	r3, [pc, #36]	; (8000cb8 <SPI1_IRQHandler+0x54>)
 8000c92:	689b      	ldr	r3, [r3, #8]
 8000c94:	091b      	lsrs	r3, r3, #4
 8000c96:	f003 0301 	and.w	r3, r3, #1
 8000c9a:	b2da      	uxtb	r2, r3
 8000c9c:	793b      	ldrb	r3, [r7, #4]
 8000c9e:	f362 0382 	bfi	r3, r2, #2, #1
 8000ca2:	713b      	strb	r3, [r7, #4]
 8000ca4:	4b05      	ldr	r3, [pc, #20]	; (8000cbc <SPI1_IRQHandler+0x58>)
 8000ca6:	681b      	ldr	r3, [r3, #0]
 8000ca8:	695b      	ldr	r3, [r3, #20]
 8000caa:	7938      	ldrb	r0, [r7, #4]
 8000cac:	4798      	blx	r3
 8000cae:	bf00      	nop
 8000cb0:	3708      	adds	r7, #8
 8000cb2:	46bd      	mov	sp, r7
 8000cb4:	bd80      	pop	{r7, pc}
 8000cb6:	bf00      	nop
 8000cb8:	40013000 	andmi	r3, r1, r0
 8000cbc:	200000b8 	strhcs	r0, [r0], -r8

08000cc0 <SPI2_IRQHandler>:
 8000cc0:	b580      	push	{r7, lr}
 8000cc2:	b082      	sub	sp, #8
 8000cc4:	af00      	add	r7, sp, #0
 8000cc6:	4b13      	ldr	r3, [pc, #76]	; (8000d14 <SPI2_IRQHandler+0x54>)
 8000cc8:	689b      	ldr	r3, [r3, #8]
 8000cca:	085b      	lsrs	r3, r3, #1
 8000ccc:	f003 0301 	and.w	r3, r3, #1
 8000cd0:	b2da      	uxtb	r2, r3
 8000cd2:	793b      	ldrb	r3, [r7, #4]
 8000cd4:	f362 0300 	bfi	r3, r2, #0, #1
 8000cd8:	713b      	strb	r3, [r7, #4]
 8000cda:	4b0e      	ldr	r3, [pc, #56]	; (8000d14 <SPI2_IRQHandler+0x54>)
 8000cdc:	689b      	ldr	r3, [r3, #8]
 8000cde:	f003 0301 	and.w	r3, r3, #1
 8000ce2:	b2da      	uxtb	r2, r3
 8000ce4:	793b      	ldrb	r3, [r7, #4]
 8000ce6:	f362 0341 	bfi	r3, r2, #1, #1
 8000cea:	713b      	strb	r3, [r7, #4]
 8000cec:	4b09      	ldr	r3, [pc, #36]	; (8000d14 <SPI2_IRQHandler+0x54>)
 8000cee:	689b      	ldr	r3, [r3, #8]
 8000cf0:	091b      	lsrs	r3, r3, #4
 8000cf2:	f003 0301 	and.w	r3, r3, #1
 8000cf6:	b2da      	uxtb	r2, r3
 8000cf8:	793b      	ldrb	r3, [r7, #4]
 8000cfa:	f362 0382 	bfi	r3, r2, #2, #1
 8000cfe:	713b      	strb	r3, [r7, #4]
 8000d00:	4b05      	ldr	r3, [pc, #20]	; (8000d18 <SPI2_IRQHandler+0x58>)
 8000d02:	685b      	ldr	r3, [r3, #4]
 8000d04:	695b      	ldr	r3, [r3, #20]
 8000d06:	7938      	ldrb	r0, [r7, #4]
 8000d08:	4798      	blx	r3
 8000d0a:	bf00      	nop
 8000d0c:	3708      	adds	r7, #8
 8000d0e:	46bd      	mov	sp, r7
 8000d10:	bd80      	pop	{r7, pc}
 8000d12:	bf00      	nop
 8000d14:	40003800 	andmi	r3, r0, r0, lsl #16
 8000d18:	200000b8 	strhcs	r0, [r0], -r8

08000d1c <USART1_IRQHandler>:
 8000d1c:	b580      	push	{r7, lr}
 8000d1e:	af00      	add	r7, sp, #0
 8000d20:	4b02      	ldr	r3, [pc, #8]	; (8000d2c <USART1_IRQHandler+0x10>)
 8000d22:	681b      	ldr	r3, [r3, #0]
 8000d24:	691b      	ldr	r3, [r3, #16]
 8000d26:	4798      	blx	r3
 8000d28:	bf00      	nop
 8000d2a:	bd80      	pop	{r7, pc}
 8000d2c:	200000c0 	andcs	r0, r0, r0, asr #1

08000d30 <USART2_IRQHandler>:
 8000d30:	b580      	push	{r7, lr}
 8000d32:	af00      	add	r7, sp, #0
 8000d34:	4b02      	ldr	r3, [pc, #8]	; (8000d40 <USART2_IRQHandler+0x10>)
 8000d36:	681b      	ldr	r3, [r3, #0]
 8000d38:	691b      	ldr	r3, [r3, #16]
 8000d3a:	4798      	blx	r3
 8000d3c:	bf00      	nop
 8000d3e:	bd80      	pop	{r7, pc}
 8000d40:	200000c0 	andcs	r0, r0, r0, asr #1

08000d44 <USART3_IRQHandler>:
 8000d44:	b580      	push	{r7, lr}
 8000d46:	af00      	add	r7, sp, #0
 8000d48:	4b02      	ldr	r3, [pc, #8]	; (8000d54 <USART3_IRQHandler+0x10>)
 8000d4a:	681b      	ldr	r3, [r3, #0]
 8000d4c:	691b      	ldr	r3, [r3, #16]
 8000d4e:	4798      	blx	r3
 8000d50:	bf00      	nop
 8000d52:	bd80      	pop	{r7, pc}
 8000d54:	200000c0 	andcs	r0, r0, r0, asr #1

08000d58 <__libc_init_array>:
 8000d58:	b570      	push	{r4, r5, r6, lr}
 8000d5a:	2600      	movs	r6, #0
 8000d5c:	4d0c      	ldr	r5, [pc, #48]	; (8000d90 <__libc_init_array+0x38>)
 8000d5e:	4c0d      	ldr	r4, [pc, #52]	; (8000d94 <__libc_init_array+0x3c>)
 8000d60:	1b64      	subs	r4, r4, r5
 8000d62:	10a4      	asrs	r4, r4, #2
 8000d64:	42a6      	cmp	r6, r4
 8000d66:	d109      	bne.n	8000d7c <__libc_init_array+0x24>
 8000d68:	f000 f81a 	bl	8000da0 <_init>
 8000d6c:	2600      	movs	r6, #0
 8000d6e:	4d0a      	ldr	r5, [pc, #40]	; (8000d98 <__libc_init_array+0x40>)
 8000d70:	4c0a      	ldr	r4, [pc, #40]	; (8000d9c <__libc_init_array+0x44>)
 8000d72:	1b64      	subs	r4, r4, r5
 8000d74:	10a4      	asrs	r4, r4, #2
 8000d76:	42a6      	cmp	r6, r4
 8000d78:	d105      	bne.n	8000d86 <__libc_init_array+0x2e>
 8000d7a:	bd70      	pop	{r4, r5, r6, pc}
 8000d7c:	f855 3b04 	ldr.w	r3, [r5], #4
 8000d80:	4798      	blx	r3
 8000d82:	3601      	adds	r6, #1
 8000d84:	e7ee      	b.n	8000d64 <__libc_init_array+0xc>
 8000d86:	f855 3b04 	ldr.w	r3, [r5], #4
 8000d8a:	4798      	blx	r3
 8000d8c:	3601      	adds	r6, #1
 8000d8e:	e7f2      	b.n	8000d76 <__libc_init_array+0x1e>
 8000d90:	08000dc4 	stmdaeq	r0, {r2, r6, r7, r8, sl, fp}
 8000d94:	08000dc4 	stmdaeq	r0, {r2, r6, r7, r8, sl, fp}
 8000d98:	08000dc4 	stmdaeq	r0, {r2, r6, r7, r8, sl, fp}
 8000d9c:	08000dc8 	stmdaeq	r0, {r3, r6, r7, r8, sl, fp}

08000da0 <_init>:
 8000da0:	b5f8      	push	{r3, r4, r5, r6, r7, lr}
 8000da2:	bf00      	nop
 8000da4:	bcf8      	pop	{r3, r4, r5, r6, r7}
 8000da6:	bc08      	pop	{r3}
 8000da8:	469e      	mov	lr, r3
 8000daa:	4770      	bx	lr

08000dac <_fini>:
 8000dac:	b5f8      	push	{r3, r4, r5, r6, r7, lr}
 8000dae:	bf00      	nop
 8000db0:	bcf8      	pop	{r3, r4, r5, r6, r7}
 8000db2:	bc08      	pop	{r3}
 8000db4:	469e      	mov	lr, r3
 8000db6:	4770      	bx	lr
